
rgr.elf:     file format elf32-avr

Sections:
Idx Name          Size      VMA       LMA       File off  Algn
  0 .text         0000189a  00000000  00000000  00000074  2**1
                  CONTENTS, ALLOC, LOAD, READONLY, CODE
  1 .data         00000304  00800060  0000189a  0000190e  2**0
                  CONTENTS, ALLOC, LOAD, DATA
  2 .stab         00000c84  00000000  00000000  00001c14  2**2
                  CONTENTS, READONLY, DEBUGGING
  3 .stabstr      000001b6  00000000  00000000  00002898  2**0
                  CONTENTS, READONLY, DEBUGGING
  4 .debug_aranges 00000220  00000000  00000000  00002a4e  2**0
                  CONTENTS, READONLY, DEBUGGING
  5 .debug_pubnames 000002f0  00000000  00000000  00002c6e  2**0
                  CONTENTS, READONLY, DEBUGGING
  6 .debug_info   00002d78  00000000  00000000  00002f5e  2**0
                  CONTENTS, READONLY, DEBUGGING
  7 .debug_abbrev 0000175c  00000000  00000000  00005cd6  2**0
                  CONTENTS, READONLY, DEBUGGING
  8 .debug_line   000022f6  00000000  00000000  00007432  2**0
                  CONTENTS, READONLY, DEBUGGING
  9 .debug_frame  000002c0  00000000  00000000  00009728  2**2
                  CONTENTS, READONLY, DEBUGGING
 10 .debug_str    00000627  00000000  00000000  000099e8  2**0
                  CONTENTS, READONLY, DEBUGGING
 11 .debug_loc    000017e2  00000000  00000000  0000a00f  2**0
                  CONTENTS, READONLY, DEBUGGING
 12 .debug_pubtypes 000007b0  00000000  00000000  0000b7f1  2**0
                  CONTENTS, READONLY, DEBUGGING
 13 .debug_ranges 000000b0  00000000  00000000  0000bfa1  2**0
                  CONTENTS, READONLY, DEBUGGING

Disassembly of section .text:

00000000 <__vectors>:
       0:	12 c0       	rjmp	.+36     	; 0x26 <__ctors_end>
       2:	24 c0       	rjmp	.+72     	; 0x4c <__bad_interrupt>
       4:	23 c0       	rjmp	.+70     	; 0x4c <__bad_interrupt>
       6:	22 c0       	rjmp	.+68     	; 0x4c <__bad_interrupt>
       8:	21 c0       	rjmp	.+66     	; 0x4c <__bad_interrupt>
       a:	20 c0       	rjmp	.+64     	; 0x4c <__bad_interrupt>
       c:	1f c0       	rjmp	.+62     	; 0x4c <__bad_interrupt>
       e:	1e c0       	rjmp	.+60     	; 0x4c <__bad_interrupt>
      10:	1d c0       	rjmp	.+58     	; 0x4c <__bad_interrupt>
      12:	1c c0       	rjmp	.+56     	; 0x4c <__bad_interrupt>
      14:	1b c0       	rjmp	.+54     	; 0x4c <__bad_interrupt>
      16:	1a c0       	rjmp	.+52     	; 0x4c <__bad_interrupt>
      18:	19 c0       	rjmp	.+50     	; 0x4c <__bad_interrupt>
      1a:	18 c0       	rjmp	.+48     	; 0x4c <__bad_interrupt>
      1c:	17 c0       	rjmp	.+46     	; 0x4c <__bad_interrupt>
      1e:	16 c0       	rjmp	.+44     	; 0x4c <__bad_interrupt>
      20:	15 c0       	rjmp	.+42     	; 0x4c <__bad_interrupt>
      22:	14 c0       	rjmp	.+40     	; 0x4c <__bad_interrupt>
      24:	13 c0       	rjmp	.+38     	; 0x4c <__bad_interrupt>

00000026 <__ctors_end>:
      26:	11 24       	eor	r1, r1
      28:	1f be       	out	0x3f, r1	; 63
      2a:	cf e5       	ldi	r28, 0x5F	; 95
      2c:	d4 e0       	ldi	r29, 0x04	; 4
      2e:	de bf       	out	0x3e, r29	; 62
      30:	cd bf       	out	0x3d, r28	; 61

00000032 <__do_copy_data>:
      32:	13 e0       	ldi	r17, 0x03	; 3
      34:	a0 e6       	ldi	r26, 0x60	; 96
      36:	b0 e0       	ldi	r27, 0x00	; 0
      38:	ea e9       	ldi	r30, 0x9A	; 154
      3a:	f8 e1       	ldi	r31, 0x18	; 24
      3c:	02 c0       	rjmp	.+4      	; 0x42 <__SREG__+0x3>
      3e:	05 90       	lpm	r0, Z+
      40:	0d 92       	st	X+, r0
      42:	a4 36       	cpi	r26, 0x64	; 100
      44:	b1 07       	cpc	r27, r17
      46:	d9 f7       	brne	.-10     	; 0x3e <__SP_H__>
      48:	d6 d1       	rcall	.+940    	; 0x3f6 <main>
      4a:	25 cc       	rjmp	.-1974   	; 0xfffff896 <__eeprom_end+0xff7ef896>

0000004c <__bad_interrupt>:
      4c:	d9 cf       	rjmp	.-78     	; 0x0 <__vectors>

0000004e <adc_init>:
    snprintf(buffer, sizeof(buffer), "%u", f3);
    pcd8544_print_at(buffer, x+k+4, y);
}
void adc_init(void) 
{
   ADMUX = (1 << REFS0);
      4e:	80 e4       	ldi	r24, 0x40	; 64
      50:	87 b9       	out	0x07, r24	; 7
   //ADMUX = (1 << REFS1) | (1 << REFS0);
   ADCSRA = (1 << ADEN) | (1 << ADPS2) | (1 << ADPS1) | (1 << ADPS0);
      52:	87 e8       	ldi	r24, 0x87	; 135
      54:	86 b9       	out	0x06, r24	; 6
}
      56:	08 95       	ret

00000058 <adc_read>:

uint16_t adc_read(uint8_t channel) 
{
    channel &= 0x07;
    ADMUX = (ADMUX & 0xF8) | channel;
      58:	97 b1       	in	r25, 0x07	; 7
   ADCSRA = (1 << ADEN) | (1 << ADPS2) | (1 << ADPS1) | (1 << ADPS0);
}

uint16_t adc_read(uint8_t channel) 
{
    channel &= 0x07;
      5a:	87 70       	andi	r24, 0x07	; 7
    ADMUX = (ADMUX & 0xF8) | channel;
      5c:	98 7f       	andi	r25, 0xF8	; 248
      5e:	89 2b       	or	r24, r25
      60:	87 b9       	out	0x07, r24	; 7
    ADCSRA |= (1 << ADSC);
      62:	36 9a       	sbi	0x06, 6	; 6
    while (ADCSRA & (1 << ADSC));
      64:	36 99       	sbic	0x06, 6	; 6
      66:	fe cf       	rjmp	.-4      	; 0x64 <adc_read+0xc>
    return ADC;
      68:	24 b1       	in	r18, 0x04	; 4
      6a:	35 b1       	in	r19, 0x05	; 5
}
      6c:	c9 01       	movw	r24, r18
      6e:	08 95       	ret

00000070 <pcd8544_send>:
}

void pcd8544_send(uint8_t dc, uint8_t data)
{
   uint8_t i;
   if (dc == LCD_D)
      70:	81 30       	cpi	r24, 0x01	; 1
      72:	11 f4       	brne	.+4      	; 0x78 <pcd8544_send+0x8>
      PORT_PCD8544 |= (1<<PIN_DC);
      74:	95 9a       	sbi	0x12, 5	; 18
      76:	01 c0       	rjmp	.+2      	; 0x7a <pcd8544_send+0xa>
   else
      PORT_PCD8544 &= ~(1<<PIN_DC);
      78:	95 98       	cbi	0x12, 5	; 18

   PORT_PCD8544&=~(1<<PIN_SCE);
      7a:	97 98       	cbi	0x12, 7	; 18
      7c:	98 e0       	ldi	r25, 0x08	; 8
   for (i=0; i<8; i++)
   {
      PORT_PCD8544=(data & 0x80) ? PORT_PCD8544 | (1<<PIN_SDIN) : PORT_PCD8544 & ~(1<<PIN_SDIN);
      7e:	67 ff       	sbrs	r22, 7
      80:	03 c0       	rjmp	.+6      	; 0x88 <pcd8544_send+0x18>
      82:	82 b3       	in	r24, 0x12	; 18
      84:	80 61       	ori	r24, 0x10	; 16
      86:	02 c0       	rjmp	.+4      	; 0x8c <pcd8544_send+0x1c>
      88:	82 b3       	in	r24, 0x12	; 18
      8a:	8f 7e       	andi	r24, 0xEF	; 239
      8c:	82 bb       	out	0x12, r24	; 18

      data=(data<<1);

      PORT_PCD8544|=(1<<PIN_SCLK);
      8e:	93 9a       	sbi	0x12, 3	; 18
      PORT_PCD8544&=~(1<<PIN_SCLK);
      90:	93 98       	cbi	0x12, 3	; 18
      92:	91 50       	subi	r25, 0x01	; 1
      PORT_PCD8544 |= (1<<PIN_DC);
   else
      PORT_PCD8544 &= ~(1<<PIN_DC);

   PORT_PCD8544&=~(1<<PIN_SCE);
   for (i=0; i<8; i++)
      94:	11 f0       	breq	.+4      	; 0x9a <pcd8544_send+0x2a>
   {
      PORT_PCD8544=(data & 0x80) ? PORT_PCD8544 | (1<<PIN_SDIN) : PORT_PCD8544 & ~(1<<PIN_SDIN);

      data=(data<<1);
      96:	66 0f       	add	r22, r22
      98:	f2 cf       	rjmp	.-28     	; 0x7e <pcd8544_send+0xe>

      PORT_PCD8544|=(1<<PIN_SCLK);
      PORT_PCD8544&=~(1<<PIN_SCLK);
   }
   PORT_PCD8544|=(1<<PIN_SCE);
      9a:	97 9a       	sbi	0x12, 7	; 18
}
      9c:	08 95       	ret

0000009e <pcd8544_init>:
   }
}
void pcd8544_init(void)
{
   // GPIO Setup
   DDR_PCD8544 |= (1<<PIN_SCE) | (1<<PIN_RESET) | (1<<PIN_DC) | (1<<PIN_SDIN) | (1<<PIN_SCLK);
      9e:	81 b3       	in	r24, 0x11	; 17
      a0:	88 6f       	ori	r24, 0xF8	; 248
      a2:	81 bb       	out	0x11, r24	; 17
   PORT_PCD8544&=~(1<<PIN_RESET);
      a4:	96 98       	cbi	0x12, 6	; 18
   PORT_PCD8544|=(1<<PIN_RESET);
      a6:	96 9a       	sbi	0x12, 6	; 18
   pcd8544_send(LCD_C, 0x21 );  // LCD Extended Commands.
      a8:	80 e0       	ldi	r24, 0x00	; 0
      aa:	61 e2       	ldi	r22, 0x21	; 33
      ac:	e1 df       	rcall	.-62     	; 0x70 <pcd8544_send>
   pcd8544_send(LCD_C, 0xBA );  // Set LCD Vop (Contrast).
      ae:	80 e0       	ldi	r24, 0x00	; 0
      b0:	6a eb       	ldi	r22, 0xBA	; 186
      b2:	de df       	rcall	.-68     	; 0x70 <pcd8544_send>
   pcd8544_send(LCD_C, 0x04 );  // Set Temp coefficent. //0x04
      b4:	80 e0       	ldi	r24, 0x00	; 0
      b6:	64 e0       	ldi	r22, 0x04	; 4
      b8:	db df       	rcall	.-74     	; 0x70 <pcd8544_send>
   pcd8544_send(LCD_C, 0x14 );  // LCD bias mode 1:48. //0x13
      ba:	80 e0       	ldi	r24, 0x00	; 0
      bc:	64 e1       	ldi	r22, 0x14	; 20
      be:	d8 df       	rcall	.-80     	; 0x70 <pcd8544_send>
   pcd8544_send(LCD_C, 0x20 );  // LCD Basic Commands
      c0:	80 e0       	ldi	r24, 0x00	; 0
      c2:	60 e2       	ldi	r22, 0x20	; 32
      c4:	d5 df       	rcall	.-86     	; 0x70 <pcd8544_send>
   pcd8544_send(LCD_C, 0x0C );  // LCD in normal mode.
      c6:	80 e0       	ldi	r24, 0x00	; 0
      c8:	6c e0       	ldi	r22, 0x0C	; 12
      ca:	d2 df       	rcall	.-92     	; 0x70 <pcd8544_send>
}
      cc:	08 95       	ret

000000ce <pcd8544_send_char>:
   }
   PORT_PCD8544|=(1<<PIN_SCE);
}

void pcd8544_send_char(uint8_t ch)
{
      ce:	0f 93       	push	r16
      d0:	1f 93       	push	r17
      d2:	cf 93       	push	r28
      d4:	df 93       	push	r29
      d6:	08 2f       	mov	r16, r24
   int i;
   if (ch >= 0x20 && ch <= 0x80)
      d8:	80 52       	subi	r24, 0x20	; 32
      da:	81 36       	cpi	r24, 0x61	; 97
      dc:	f8 f4       	brcc	.+62     	; 0x11c <pcd8544_send_char+0x4e>
   {
      pcd8544_send(LCD_D, 0x00);
      de:	81 e0       	ldi	r24, 0x01	; 1
      e0:	60 e0       	ldi	r22, 0x00	; 0
      e2:	c6 df       	rcall	.-116    	; 0x70 <pcd8544_send>
      for (i = 0; i < 5; i++)
      {
         pcd8544_send(LCD_D,  ASCII[ch - 0x20][i]);
      e4:	20 2f       	mov	r18, r16
      e6:	30 e0       	ldi	r19, 0x00	; 0
      e8:	20 52       	subi	r18, 0x20	; 32
      ea:	30 40       	sbci	r19, 0x00	; 0
      PORT_PCD8544&=~(1<<PIN_SCLK);
   }
   PORT_PCD8544|=(1<<PIN_SCE);
}

void pcd8544_send_char(uint8_t ch)
      ec:	e9 01       	movw	r28, r18
      ee:	cc 0f       	add	r28, r28
      f0:	dd 1f       	adc	r29, r29
      f2:	cc 0f       	add	r28, r28
      f4:	dd 1f       	adc	r29, r29
      f6:	c2 0f       	add	r28, r18
      f8:	d3 1f       	adc	r29, r19
      fa:	c4 58       	subi	r28, 0x84	; 132
      fc:	df 4f       	sbci	r29, 0xFF	; 255
      fe:	85 e0       	ldi	r24, 0x05	; 5
     100:	08 9f       	mul	r16, r24
     102:	80 01       	movw	r16, r0
     104:	11 24       	eor	r1, r1
     106:	0f 51       	subi	r16, 0x1F	; 31
     108:	10 40       	sbci	r17, 0x00	; 0
   if (ch >= 0x20 && ch <= 0x80)
   {
      pcd8544_send(LCD_D, 0x00);
      for (i = 0; i < 5; i++)
      {
         pcd8544_send(LCD_D,  ASCII[ch - 0x20][i]);
     10a:	69 91       	ld	r22, Y+
     10c:	81 e0       	ldi	r24, 0x01	; 1
     10e:	b0 df       	rcall	.-160    	; 0x70 <pcd8544_send>
{
   int i;
   if (ch >= 0x20 && ch <= 0x80)
   {
      pcd8544_send(LCD_D, 0x00);
      for (i = 0; i < 5; i++)
     110:	c0 17       	cp	r28, r16
     112:	d1 07       	cpc	r29, r17
     114:	d1 f7       	brne	.-12     	; 0x10a <pcd8544_send_char+0x3c>
      {
         pcd8544_send(LCD_D,  ASCII[ch - 0x20][i]);
      }
      pcd8544_send(LCD_D, 0x00);
     116:	81 e0       	ldi	r24, 0x01	; 1
     118:	60 e0       	ldi	r22, 0x00	; 0
     11a:	aa df       	rcall	.-172    	; 0x70 <pcd8544_send>
   }
}
     11c:	df 91       	pop	r29
     11e:	cf 91       	pop	r28
     120:	1f 91       	pop	r17
     122:	0f 91       	pop	r16
     124:	08 95       	ret

00000126 <pcd8544_print_at>:
    while (ADCSRA & (1 << ADSC));
    return ADC;
}

void pcd8544_print_at(char *str, uint8_t x, uint8_t y)
{
     126:	ef 92       	push	r14
     128:	ff 92       	push	r15
     12a:	0f 93       	push	r16
     12c:	1f 93       	push	r17
     12e:	cf 93       	push	r28
     130:	df 93       	push	r29
     132:	8c 01       	movw	r16, r24
     134:	f6 2e       	mov	r15, r22
     136:	84 2f       	mov	r24, r20
   x=x%12; y=y%6;
     138:	66 e0       	ldi	r22, 0x06	; 6
     13a:	c4 d8       	rcall	.-3704   	; 0xfffff2c4 <__eeprom_end+0xff7ef2c4>
   pcd8544_send(LCD_C, 0x40+y);
     13c:	90 5c       	subi	r25, 0xC0	; 192
     13e:	80 e0       	ldi	r24, 0x00	; 0
     140:	69 2f       	mov	r22, r25
     142:	96 df       	rcall	.-212    	; 0x70 <pcd8544_send>
    return ADC;
}

void pcd8544_print_at(char *str, uint8_t x, uint8_t y)
{
   x=x%12; y=y%6;
     144:	8f 2d       	mov	r24, r15
     146:	6c e0       	ldi	r22, 0x0C	; 12
     148:	bd d8       	rcall	.-3718   	; 0xfffff2c4 <__eeprom_end+0xff7ef2c4>
   pcd8544_send(LCD_C, 0x40+y);
   pcd8544_send(LCD_C, 0x80+x*7);
     14a:	87 e0       	ldi	r24, 0x07	; 7
     14c:	98 9f       	mul	r25, r24
     14e:	60 2d       	mov	r22, r0
     150:	11 24       	eor	r1, r1
     152:	60 58       	subi	r22, 0x80	; 128
     154:	80 e0       	ldi	r24, 0x00	; 0
     156:	8c df       	rcall	.-232    	; 0x70 <pcd8544_send>
     158:	e0 2e       	mov	r14, r16
     15a:	e7 01       	movw	r28, r14
     15c:	7e 01       	movw	r14, r28
     15e:	f1 2e       	mov	r15, r17
     160:	e7 01       	movw	r28, r14

   while (*str)
     162:	01 c0       	rjmp	.+2      	; 0x166 <pcd8544_print_at+0x40>
   {
      pcd8544_send_char(*str++);
     164:	b4 df       	rcall	.-152    	; 0xce <pcd8544_send_char>
{
   x=x%12; y=y%6;
   pcd8544_send(LCD_C, 0x40+y);
   pcd8544_send(LCD_C, 0x80+x*7);

   while (*str)
     166:	89 91       	ld	r24, Y+
     168:	88 23       	and	r24, r24
     16a:	e1 f7       	brne	.-8      	; 0x164 <pcd8544_print_at+0x3e>
   {
      pcd8544_send_char(*str++);
   }
}
     16c:	df 91       	pop	r29
     16e:	cf 91       	pop	r28
     170:	1f 91       	pop	r17
     172:	0f 91       	pop	r16
     174:	ff 90       	pop	r15
     176:	ef 90       	pop	r14
     178:	08 95       	ret

0000017a <print_value>:

   return 0;
}

void print_value(double value, uint8_t x, uint8_t y)
{
     17a:	2f 92       	push	r2
     17c:	3f 92       	push	r3
     17e:	4f 92       	push	r4
     180:	5f 92       	push	r5
     182:	6f 92       	push	r6
     184:	7f 92       	push	r7
     186:	8f 92       	push	r8
     188:	9f 92       	push	r9
     18a:	af 92       	push	r10
     18c:	bf 92       	push	r11
     18e:	cf 92       	push	r12
     190:	df 92       	push	r13
     192:	ef 92       	push	r14
     194:	ff 92       	push	r15
     196:	0f 93       	push	r16
     198:	1f 93       	push	r17
     19a:	df 93       	push	r29
     19c:	cf 93       	push	r28
     19e:	cd b7       	in	r28, 0x3d	; 61
     1a0:	de b7       	in	r29, 0x3e	; 62
     1a2:	28 97       	sbiw	r28, 0x08	; 8
     1a4:	0f b6       	in	r0, 0x3f	; 63
     1a6:	f8 94       	cli
     1a8:	de bf       	out	0x3e, r29	; 62
     1aa:	0f be       	out	0x3f, r0	; 63
     1ac:	cd bf       	out	0x3d, r28	; 61
     1ae:	6b 01       	movw	r12, r22
     1b0:	7c 01       	movw	r14, r24
     1b2:	a4 2e       	mov	r10, r20
     1b4:	b2 2e       	mov	r11, r18
    int k = 0;
    char buffer[4];
    uint16_t f1 = value;
     1b6:	f9 d1       	rcall	.+1010   	; 0x5aa <__fixunssfsi>
     1b8:	6d 83       	std	Y+5, r22	; 0x05
     1ba:	7e 83       	std	Y+6, r23	; 0x06
     1bc:	8f 83       	std	Y+7, r24	; 0x07
     1be:	98 87       	std	Y+8, r25	; 0x08
     1c0:	0d 81       	ldd	r16, Y+5	; 0x05
     1c2:	1e 81       	ldd	r17, Y+6	; 0x06
    uint16_t f2 = value*10-f1*10;
     1c4:	c7 01       	movw	r24, r14
     1c6:	b6 01       	movw	r22, r12
     1c8:	20 e0       	ldi	r18, 0x00	; 0
     1ca:	30 e0       	ldi	r19, 0x00	; 0
     1cc:	40 e2       	ldi	r20, 0x20	; 32
     1ce:	51 e4       	ldi	r21, 0x41	; 65
     1d0:	ae d3       	rcall	.+1884   	; 0x92e <__mulsf3>
     1d2:	2b 01       	movw	r4, r22
     1d4:	3c 01       	movw	r6, r24
     1d6:	b8 01       	movw	r22, r16
     1d8:	66 0f       	add	r22, r22
     1da:	77 1f       	adc	r23, r23
     1dc:	c8 01       	movw	r24, r16
     1de:	53 e0       	ldi	r21, 0x03	; 3
     1e0:	88 0f       	add	r24, r24
     1e2:	99 1f       	adc	r25, r25
     1e4:	5a 95       	dec	r21
     1e6:	e1 f7       	brne	.-8      	; 0x1e0 <print_value+0x66>
     1e8:	68 0f       	add	r22, r24
     1ea:	79 1f       	adc	r23, r25
     1ec:	80 e0       	ldi	r24, 0x00	; 0
     1ee:	90 e0       	ldi	r25, 0x00	; 0
     1f0:	0c d6       	rcall	.+3096   	; 0xe0a <__floatunsisf>
     1f2:	9b 01       	movw	r18, r22
     1f4:	ac 01       	movw	r20, r24
     1f6:	c3 01       	movw	r24, r6
     1f8:	b2 01       	movw	r22, r4
     1fa:	6e d3       	rcall	.+1756   	; 0x8d8 <__subsf3>
     1fc:	d6 d1       	rcall	.+940    	; 0x5aa <__fixunssfsi>
     1fe:	96 2e       	mov	r9, r22
     200:	87 2e       	mov	r8, r23
     202:	14 01       	movw	r2, r8
    uint16_t f3 = value*100-f1*100-f2*10;;
     204:	c7 01       	movw	r24, r14
     206:	b6 01       	movw	r22, r12
     208:	20 e0       	ldi	r18, 0x00	; 0
     20a:	30 e0       	ldi	r19, 0x00	; 0
     20c:	48 ec       	ldi	r20, 0xC8	; 200
     20e:	52 e4       	ldi	r21, 0x42	; 66
     210:	8e d3       	rcall	.+1820   	; 0x92e <__mulsf3>
     212:	2b 01       	movw	r4, r22
     214:	3c 01       	movw	r6, r24
     216:	84 e6       	ldi	r24, 0x64	; 100
     218:	90 e0       	ldi	r25, 0x00	; 0
     21a:	08 9f       	mul	r16, r24
     21c:	b0 01       	movw	r22, r0
     21e:	09 9f       	mul	r16, r25
     220:	70 0d       	add	r23, r0
     222:	18 9f       	mul	r17, r24
     224:	70 0d       	add	r23, r0
     226:	11 24       	eor	r1, r1
     228:	80 e0       	ldi	r24, 0x00	; 0
     22a:	90 e0       	ldi	r25, 0x00	; 0
     22c:	ee d5       	rcall	.+3036   	; 0xe0a <__floatunsisf>
     22e:	9b 01       	movw	r18, r22
     230:	ac 01       	movw	r20, r24
     232:	c3 01       	movw	r24, r6
     234:	b2 01       	movw	r22, r4
     236:	50 d3       	rcall	.+1696   	; 0x8d8 <__subsf3>
     238:	2b 01       	movw	r4, r22
     23a:	3c 01       	movw	r6, r24
     23c:	89 2d       	mov	r24, r9
     23e:	98 2d       	mov	r25, r8
     240:	bc 01       	movw	r22, r24
     242:	66 0f       	add	r22, r22
     244:	77 1f       	adc	r23, r23
     246:	33 e0       	ldi	r19, 0x03	; 3
     248:	88 0f       	add	r24, r24
     24a:	99 1f       	adc	r25, r25
     24c:	3a 95       	dec	r19
     24e:	e1 f7       	brne	.-8      	; 0x248 <print_value+0xce>
     250:	68 0f       	add	r22, r24
     252:	79 1f       	adc	r23, r25
     254:	80 e0       	ldi	r24, 0x00	; 0
     256:	90 e0       	ldi	r25, 0x00	; 0
     258:	d8 d5       	rcall	.+2992   	; 0xe0a <__floatunsisf>
     25a:	9b 01       	movw	r18, r22
     25c:	ac 01       	movw	r20, r24
     25e:	c3 01       	movw	r24, r6
     260:	b2 01       	movw	r22, r4
     262:	3a d3       	rcall	.+1652   	; 0x8d8 <__subsf3>
     264:	a2 d1       	rcall	.+836    	; 0x5aa <__fixunssfsi>
     266:	4b 01       	movw	r8, r22
    snprintf(buffer, sizeof(buffer), "%u", f1);
     268:	8d b7       	in	r24, 0x3d	; 61
     26a:	9e b7       	in	r25, 0x3e	; 62
     26c:	08 97       	sbiw	r24, 0x08	; 8
     26e:	0f b6       	in	r0, 0x3f	; 63
     270:	f8 94       	cli
     272:	9e bf       	out	0x3e, r25	; 62
     274:	0f be       	out	0x3f, r0	; 63
     276:	8d bf       	out	0x3d, r24	; 61
     278:	ed b7       	in	r30, 0x3d	; 61
     27a:	fe b7       	in	r31, 0x3e	; 62
     27c:	31 96       	adiw	r30, 0x01	; 1
     27e:	8e 01       	movw	r16, r28
     280:	0f 5f       	subi	r16, 0xFF	; 255
     282:	1f 4f       	sbci	r17, 0xFF	; 255
     284:	ad b7       	in	r26, 0x3d	; 61
     286:	be b7       	in	r27, 0x3e	; 62
     288:	12 96       	adiw	r26, 0x02	; 2
     28a:	1c 93       	st	X, r17
     28c:	0e 93       	st	-X, r16
     28e:	11 97       	sbiw	r26, 0x01	; 1
     290:	84 e0       	ldi	r24, 0x04	; 4
     292:	90 e0       	ldi	r25, 0x00	; 0
     294:	93 83       	std	Z+3, r25	; 0x03
     296:	82 83       	std	Z+2, r24	; 0x02
     298:	80 e6       	ldi	r24, 0x60	; 96
     29a:	90 e0       	ldi	r25, 0x00	; 0
     29c:	95 83       	std	Z+5, r25	; 0x05
     29e:	84 83       	std	Z+4, r24	; 0x04
     2a0:	8d 81       	ldd	r24, Y+5	; 0x05
     2a2:	9e 81       	ldd	r25, Y+6	; 0x06
     2a4:	97 83       	std	Z+7, r25	; 0x07
     2a6:	86 83       	std	Z+6, r24	; 0x06
     2a8:	50 d8       	rcall	.-3936   	; 0xfffff34a <__eeprom_end+0xff7ef34a>
    if (value >= 100)
    {
       k = 1;
    }
    if (value >= 10)
     2aa:	ad b7       	in	r26, 0x3d	; 61
     2ac:	be b7       	in	r27, 0x3e	; 62
     2ae:	18 96       	adiw	r26, 0x08	; 8
     2b0:	0f b6       	in	r0, 0x3f	; 63
     2b2:	f8 94       	cli
     2b4:	be bf       	out	0x3e, r27	; 62
     2b6:	0f be       	out	0x3f, r0	; 63
     2b8:	ad bf       	out	0x3d, r26	; 61
     2ba:	c7 01       	movw	r24, r14
     2bc:	b6 01       	movw	r22, r12
     2be:	20 e0       	ldi	r18, 0x00	; 0
     2c0:	30 e0       	ldi	r19, 0x00	; 0
     2c2:	40 e2       	ldi	r20, 0x20	; 32
     2c4:	51 e4       	ldi	r21, 0x41	; 65
     2c6:	fc d4       	rcall	.+2552   	; 0xcc0 <__gesf2>
     2c8:	87 fd       	sbrc	r24, 7
     2ca:	03 c0       	rjmp	.+6      	; 0x2d2 <print_value+0x158>
    {
        pcd8544_print_at(buffer, x, y);
     2cc:	c8 01       	movw	r24, r16
     2ce:	6a 2d       	mov	r22, r10
     2d0:	08 c0       	rjmp	.+16     	; 0x2e2 <print_value+0x168>
    }
    else
    {
        pcd8544_print_at("0", x, y);
     2d2:	83 e6       	ldi	r24, 0x63	; 99
     2d4:	90 e0       	ldi	r25, 0x00	; 0
     2d6:	6a 2d       	mov	r22, r10
     2d8:	4b 2d       	mov	r20, r11
     2da:	25 df       	rcall	.-438    	; 0x126 <pcd8544_print_at>
        pcd8544_print_at(buffer, x+1, y);
     2dc:	6a 2d       	mov	r22, r10
     2de:	6f 5f       	subi	r22, 0xFF	; 255
     2e0:	c8 01       	movw	r24, r16
     2e2:	4b 2d       	mov	r20, r11
     2e4:	20 df       	rcall	.-448    	; 0x126 <pcd8544_print_at>
    }
    pcd8544_print_at(".", x+k+2, y);
     2e6:	01 e0       	ldi	r16, 0x01	; 1
     2e8:	c7 01       	movw	r24, r14
     2ea:	b6 01       	movw	r22, r12
     2ec:	20 e0       	ldi	r18, 0x00	; 0
     2ee:	30 e0       	ldi	r19, 0x00	; 0
     2f0:	48 ec       	ldi	r20, 0xC8	; 200
     2f2:	52 e4       	ldi	r21, 0x42	; 66
     2f4:	e5 d4       	rcall	.+2506   	; 0xcc0 <__gesf2>
     2f6:	87 fd       	sbrc	r24, 7
     2f8:	00 e0       	ldi	r16, 0x00	; 0
     2fa:	a0 0e       	add	r10, r16
     2fc:	6a 2d       	mov	r22, r10
     2fe:	6e 5f       	subi	r22, 0xFE	; 254
     300:	85 e6       	ldi	r24, 0x65	; 101
     302:	90 e0       	ldi	r25, 0x00	; 0
     304:	4b 2d       	mov	r20, r11
     306:	0f df       	rcall	.-482    	; 0x126 <pcd8544_print_at>
    snprintf(buffer, sizeof(buffer), "%u", f2);
     308:	8d b7       	in	r24, 0x3d	; 61
     30a:	9e b7       	in	r25, 0x3e	; 62
     30c:	08 97       	sbiw	r24, 0x08	; 8
     30e:	0f b6       	in	r0, 0x3f	; 63
     310:	f8 94       	cli
     312:	9e bf       	out	0x3e, r25	; 62
     314:	0f be       	out	0x3f, r0	; 63
     316:	8d bf       	out	0x3d, r24	; 61
     318:	ed b7       	in	r30, 0x3d	; 61
     31a:	fe b7       	in	r31, 0x3e	; 62
     31c:	31 96       	adiw	r30, 0x01	; 1
     31e:	8e 01       	movw	r16, r28
     320:	0f 5f       	subi	r16, 0xFF	; 255
     322:	1f 4f       	sbci	r17, 0xFF	; 255
     324:	ad b7       	in	r26, 0x3d	; 61
     326:	be b7       	in	r27, 0x3e	; 62
     328:	12 96       	adiw	r26, 0x02	; 2
     32a:	1c 93       	st	X, r17
     32c:	0e 93       	st	-X, r16
     32e:	11 97       	sbiw	r26, 0x01	; 1
     330:	24 e0       	ldi	r18, 0x04	; 4
     332:	e2 2e       	mov	r14, r18
     334:	f1 2c       	mov	r15, r1
     336:	f3 82       	std	Z+3, r15	; 0x03
     338:	e2 82       	std	Z+2, r14	; 0x02
     33a:	90 e6       	ldi	r25, 0x60	; 96
     33c:	c9 2e       	mov	r12, r25
     33e:	90 e0       	ldi	r25, 0x00	; 0
     340:	d9 2e       	mov	r13, r25
     342:	d5 82       	std	Z+5, r13	; 0x05
     344:	c4 82       	std	Z+4, r12	; 0x04
     346:	36 82       	std	Z+6, r3	; 0x06
     348:	27 82       	std	Z+7, r2	; 0x07
     34a:	ff d7       	rcall	.+4094   	; 0x134a <snprintf>
    pcd8544_print_at(buffer, x+k+3, y);
     34c:	8d b7       	in	r24, 0x3d	; 61
     34e:	9e b7       	in	r25, 0x3e	; 62
     350:	08 96       	adiw	r24, 0x08	; 8
     352:	0f b6       	in	r0, 0x3f	; 63
     354:	f8 94       	cli
     356:	9e bf       	out	0x3e, r25	; 62
     358:	0f be       	out	0x3f, r0	; 63
     35a:	8d bf       	out	0x3d, r24	; 61
     35c:	6a 2d       	mov	r22, r10
     35e:	6d 5f       	subi	r22, 0xFD	; 253
     360:	c8 01       	movw	r24, r16
     362:	4b 2d       	mov	r20, r11
     364:	e0 de       	rcall	.-576    	; 0x126 <pcd8544_print_at>
    snprintf(buffer, sizeof(buffer), "%u", f3);
     366:	ad b7       	in	r26, 0x3d	; 61
     368:	be b7       	in	r27, 0x3e	; 62
     36a:	18 97       	sbiw	r26, 0x08	; 8
     36c:	0f b6       	in	r0, 0x3f	; 63
     36e:	f8 94       	cli
     370:	be bf       	out	0x3e, r27	; 62
     372:	0f be       	out	0x3f, r0	; 63
     374:	ad bf       	out	0x3d, r26	; 61
     376:	ed b7       	in	r30, 0x3d	; 61
     378:	fe b7       	in	r31, 0x3e	; 62
     37a:	31 96       	adiw	r30, 0x01	; 1
     37c:	12 96       	adiw	r26, 0x02	; 2
     37e:	1c 93       	st	X, r17
     380:	0e 93       	st	-X, r16
     382:	11 97       	sbiw	r26, 0x01	; 1
     384:	f3 82       	std	Z+3, r15	; 0x03
     386:	e2 82       	std	Z+2, r14	; 0x02
     388:	d5 82       	std	Z+5, r13	; 0x05
     38a:	c4 82       	std	Z+4, r12	; 0x04
     38c:	97 82       	std	Z+7, r9	; 0x07
     38e:	86 82       	std	Z+6, r8	; 0x06
     390:	dc d7       	rcall	.+4024   	; 0x134a <snprintf>
    pcd8544_print_at(buffer, x+k+4, y);
     392:	8d b7       	in	r24, 0x3d	; 61
     394:	9e b7       	in	r25, 0x3e	; 62
     396:	08 96       	adiw	r24, 0x08	; 8
     398:	0f b6       	in	r0, 0x3f	; 63
     39a:	f8 94       	cli
     39c:	9e bf       	out	0x3e, r25	; 62
     39e:	0f be       	out	0x3f, r0	; 63
     3a0:	8d bf       	out	0x3d, r24	; 61
     3a2:	6a 2d       	mov	r22, r10
     3a4:	6c 5f       	subi	r22, 0xFC	; 252
     3a6:	c8 01       	movw	r24, r16
     3a8:	4b 2d       	mov	r20, r11
     3aa:	bd de       	rcall	.-646    	; 0x126 <pcd8544_print_at>
}
     3ac:	28 96       	adiw	r28, 0x08	; 8
     3ae:	0f b6       	in	r0, 0x3f	; 63
     3b0:	f8 94       	cli
     3b2:	de bf       	out	0x3e, r29	; 62
     3b4:	0f be       	out	0x3f, r0	; 63
     3b6:	cd bf       	out	0x3d, r28	; 61
     3b8:	cf 91       	pop	r28
     3ba:	df 91       	pop	r29
     3bc:	1f 91       	pop	r17
     3be:	0f 91       	pop	r16
     3c0:	ff 90       	pop	r15
     3c2:	ef 90       	pop	r14
     3c4:	df 90       	pop	r13
     3c6:	cf 90       	pop	r12
     3c8:	bf 90       	pop	r11
     3ca:	af 90       	pop	r10
     3cc:	9f 90       	pop	r9
     3ce:	8f 90       	pop	r8
     3d0:	7f 90       	pop	r7
     3d2:	6f 90       	pop	r6
     3d4:	5f 90       	pop	r5
     3d6:	4f 90       	pop	r4
     3d8:	3f 90       	pop	r3
     3da:	2f 90       	pop	r2
     3dc:	08 95       	ret

000003de <pcd8544_clear>:
      pcd8544_send(LCD_D, 0x00);
   }
}

void pcd8544_clear(void)
{
     3de:	cf 93       	push	r28
     3e0:	df 93       	push	r29
     3e2:	c8 ef       	ldi	r28, 0xF8	; 248
     3e4:	d1 e0       	ldi	r29, 0x01	; 1
   int i;
   for (i=0; i < LCD_X * LCD_Y / 8; i++)
   {
      pcd8544_send(LCD_D, 0x00);
     3e6:	81 e0       	ldi	r24, 0x01	; 1
     3e8:	60 e0       	ldi	r22, 0x00	; 0
     3ea:	42 de       	rcall	.-892    	; 0x70 <pcd8544_send>
     3ec:	21 97       	sbiw	r28, 0x01	; 1
}

void pcd8544_clear(void)
{
   int i;
   for (i=0; i < LCD_X * LCD_Y / 8; i++)
     3ee:	d9 f7       	brne	.-10     	; 0x3e6 <pcd8544_clear+0x8>
   {
      pcd8544_send(LCD_D, 0x00);
   }
}
     3f0:	df 91       	pop	r29
     3f2:	cf 91       	pop	r28
     3f4:	08 95       	ret

000003f6 <main>:
void pcd8544_clear(void);
void pcd8544_print_at(char *str, uint8_t x, uint8_t y);
void print_value(double value, uint8_t x, uint8_t y);

int main(void)
{
     3f6:	6f 92       	push	r6
     3f8:	7f 92       	push	r7
     3fa:	8f 92       	push	r8
     3fc:	9f 92       	push	r9
     3fe:	af 92       	push	r10
     400:	bf 92       	push	r11
     402:	cf 92       	push	r12
     404:	df 92       	push	r13
     406:	ef 92       	push	r14
     408:	ff 92       	push	r15
     40a:	0f 93       	push	r16
     40c:	1f 93       	push	r17
   pcd8544_init();
     40e:	47 de       	rcall	.-882    	; 0x9e <pcd8544_init>
   pcd8544_clear();
     410:	e6 df       	rcall	.-52     	; 0x3de <pcd8544_clear>
   adc_init();
     412:	1d de       	rcall	.-966    	; 0x4e <adc_init>
   double power;
   float Vofs = 0.136f;
   
   for (;;)
   {
      amps = adc_read(0) * 5.0f / 1023.0f - Vofs;
     414:	80 e0       	ldi	r24, 0x00	; 0
     416:	20 de       	rcall	.-960    	; 0x58 <adc_read>
     418:	bc 01       	movw	r22, r24
     41a:	80 e0       	ldi	r24, 0x00	; 0
     41c:	90 e0       	ldi	r25, 0x00	; 0
     41e:	f5 d4       	rcall	.+2538   	; 0xe0a <__floatunsisf>
     420:	20 e0       	ldi	r18, 0x00	; 0
     422:	30 e0       	ldi	r19, 0x00	; 0
     424:	40 ea       	ldi	r20, 0xA0	; 160
     426:	50 e4       	ldi	r21, 0x40	; 64
     428:	82 d2       	rcall	.+1284   	; 0x92e <__mulsf3>
     42a:	20 e0       	ldi	r18, 0x00	; 0
     42c:	30 ec       	ldi	r19, 0xC0	; 192
     42e:	4f e7       	ldi	r20, 0x7F	; 127
     430:	54 e4       	ldi	r21, 0x44	; 68
     432:	72 d3       	rcall	.+1764   	; 0xb18 <__divsf3>
     434:	26 e9       	ldi	r18, 0x96	; 150
     436:	33 e4       	ldi	r19, 0x43	; 67
     438:	4b e0       	ldi	r20, 0x0B	; 11
     43a:	5e e3       	ldi	r21, 0x3E	; 62
     43c:	4d d2       	rcall	.+1178   	; 0x8d8 <__subsf3>
     43e:	7b 01       	movw	r14, r22
     440:	8c 01       	movw	r16, r24
      volts = adc_read(1) * 5.0f / 1023.0f;
     442:	81 e0       	ldi	r24, 0x01	; 1
     444:	09 de       	rcall	.-1006   	; 0x58 <adc_read>
     446:	bc 01       	movw	r22, r24
     448:	80 e0       	ldi	r24, 0x00	; 0
     44a:	90 e0       	ldi	r25, 0x00	; 0
     44c:	de d4       	rcall	.+2492   	; 0xe0a <__floatunsisf>
     44e:	20 e0       	ldi	r18, 0x00	; 0
     450:	30 e0       	ldi	r19, 0x00	; 0
     452:	40 ea       	ldi	r20, 0xA0	; 160
     454:	50 e4       	ldi	r21, 0x40	; 64
     456:	6b d2       	rcall	.+1238   	; 0x92e <__mulsf3>
     458:	20 e0       	ldi	r18, 0x00	; 0
     45a:	30 ec       	ldi	r19, 0xC0	; 192
     45c:	4f e7       	ldi	r20, 0x7F	; 127
     45e:	54 e4       	ldi	r21, 0x44	; 68
     460:	5b d3       	rcall	.+1718   	; 0xb18 <__divsf3>
     462:	d6 2e       	mov	r13, r22
     464:	c7 2e       	mov	r12, r23
     466:	b8 2e       	mov	r11, r24
     468:	a9 2e       	mov	r10, r25
      if (amps < 0.0f)
     46a:	6e 2d       	mov	r22, r14
     46c:	7f 2d       	mov	r23, r15
     46e:	80 2f       	mov	r24, r16
     470:	91 2f       	mov	r25, r17
     472:	20 e0       	ldi	r18, 0x00	; 0
     474:	30 e0       	ldi	r19, 0x00	; 0
     476:	a9 01       	movw	r20, r18
     478:	4e d4       	rcall	.+2204   	; 0xd16 <__ltsf2>
     47a:	87 ff       	sbrs	r24, 7
     47c:	04 c0       	rjmp	.+8      	; 0x486 <__stack+0x27>
      {
	 amps = 0.0f;
     47e:	ee 24       	eor	r14, r14
     480:	ff 24       	eor	r15, r15
     482:	00 e0       	ldi	r16, 0x00	; 0
     484:	10 e0       	ldi	r17, 0x00	; 0
      }
      amps = amps * 2.9412f;
     486:	6e 2d       	mov	r22, r14
     488:	7f 2d       	mov	r23, r15
     48a:	80 2f       	mov	r24, r16
     48c:	91 2f       	mov	r25, r17
     48e:	2f e9       	ldi	r18, 0x9F	; 159
     490:	3c e3       	ldi	r19, 0x3C	; 60
     492:	4c e3       	ldi	r20, 0x3C	; 60
     494:	50 e4       	ldi	r21, 0x40	; 64
     496:	4b d2       	rcall	.+1174   	; 0x92e <__mulsf3>
     498:	f6 2e       	mov	r15, r22
     49a:	07 2f       	mov	r16, r23
     49c:	18 2f       	mov	r17, r24
     49e:	e9 2e       	mov	r14, r25
      volts = volts * 6.2f - 0.005f * amps;
     4a0:	a6 01       	movw	r20, r12
     4a2:	95 01       	movw	r18, r10
     4a4:	65 2f       	mov	r22, r21
     4a6:	7c 2d       	mov	r23, r12
     4a8:	83 2f       	mov	r24, r19
     4aa:	9a 2d       	mov	r25, r10
     4ac:	26 e6       	ldi	r18, 0x66	; 102
     4ae:	36 e6       	ldi	r19, 0x66	; 102
     4b0:	46 ec       	ldi	r20, 0xC6	; 198
     4b2:	50 e4       	ldi	r21, 0x40	; 64
     4b4:	3c d2       	rcall	.+1144   	; 0x92e <__mulsf3>
     4b6:	d6 2e       	mov	r13, r22
     4b8:	c7 2e       	mov	r12, r23
     4ba:	b8 2e       	mov	r11, r24
     4bc:	a9 2e       	mov	r10, r25
     4be:	6f 2d       	mov	r22, r15
     4c0:	70 2f       	mov	r23, r16
     4c2:	81 2f       	mov	r24, r17
     4c4:	9e 2d       	mov	r25, r14
     4c6:	2a e0       	ldi	r18, 0x0A	; 10
     4c8:	37 ed       	ldi	r19, 0xD7	; 215
     4ca:	43 ea       	ldi	r20, 0xA3	; 163
     4cc:	5b e3       	ldi	r21, 0x3B	; 59
     4ce:	2f d2       	rcall	.+1118   	; 0x92e <__mulsf3>
     4d0:	9b 01       	movw	r18, r22
     4d2:	ac 01       	movw	r20, r24
     4d4:	d6 01       	movw	r26, r12
     4d6:	f5 01       	movw	r30, r10
     4d8:	6b 2f       	mov	r22, r27
     4da:	7a 2f       	mov	r23, r26
     4dc:	8f 2f       	mov	r24, r31
     4de:	9e 2f       	mov	r25, r30
     4e0:	fb d1       	rcall	.+1014   	; 0x8d8 <__subsf3>
     4e2:	d6 2e       	mov	r13, r22
     4e4:	c7 2e       	mov	r12, r23
     4e6:	b8 2e       	mov	r11, r24
     4e8:	a9 2e       	mov	r10, r25
      power = amps * volts;
     4ea:	6f 2d       	mov	r22, r15
     4ec:	70 2f       	mov	r23, r16
     4ee:	81 2f       	mov	r24, r17
     4f0:	9e 2d       	mov	r25, r14
     4f2:	d6 01       	movw	r26, r12
     4f4:	f5 01       	movw	r30, r10
     4f6:	2b 2f       	mov	r18, r27
     4f8:	3a 2f       	mov	r19, r26
     4fa:	4f 2f       	mov	r20, r31
     4fc:	5e 2f       	mov	r21, r30
     4fe:	17 d2       	rcall	.+1070   	; 0x92e <__mulsf3>
     500:	96 2e       	mov	r9, r22
     502:	87 2e       	mov	r8, r23
     504:	78 2e       	mov	r7, r24
     506:	69 2e       	mov	r6, r25
      
      pcd8544_clear();
     508:	6a df       	rcall	.-300    	; 0x3de <pcd8544_clear>
           
      pcd8544_print_at("U=", 1, 2);
     50a:	87 e6       	ldi	r24, 0x67	; 103
     50c:	90 e0       	ldi	r25, 0x00	; 0
     50e:	61 e0       	ldi	r22, 0x01	; 1
     510:	42 e0       	ldi	r20, 0x02	; 2
     512:	09 de       	rcall	.-1006   	; 0x126 <pcd8544_print_at>
      print_value(volts, 3, 2);
     514:	a6 01       	movw	r20, r12
     516:	95 01       	movw	r18, r10
     518:	65 2f       	mov	r22, r21
     51a:	74 2f       	mov	r23, r20
     51c:	83 2f       	mov	r24, r19
     51e:	92 2f       	mov	r25, r18
     520:	43 e0       	ldi	r20, 0x03	; 3
     522:	22 e0       	ldi	r18, 0x02	; 2
     524:	2a de       	rcall	.-940    	; 0x17a <print_value>
      pcd8544_print_at("V", 10, 2);
     526:	8a e6       	ldi	r24, 0x6A	; 106
     528:	90 e0       	ldi	r25, 0x00	; 0
     52a:	6a e0       	ldi	r22, 0x0A	; 10
     52c:	42 e0       	ldi	r20, 0x02	; 2
     52e:	fb dd       	rcall	.-1034   	; 0x126 <pcd8544_print_at>
      
      if (amps > 10.0f)
     530:	6f 2d       	mov	r22, r15
     532:	70 2f       	mov	r23, r16
     534:	81 2f       	mov	r24, r17
     536:	9e 2d       	mov	r25, r14
     538:	20 e0       	ldi	r18, 0x00	; 0
     53a:	30 e0       	ldi	r19, 0x00	; 0
     53c:	40 e2       	ldi	r20, 0x20	; 32
     53e:	51 e4       	ldi	r21, 0x41	; 65
     540:	94 d3       	rcall	.+1832   	; 0xc6a <__gtsf2>
     542:	18 16       	cp	r1, r24
     544:	24 f4       	brge	.+8      	; 0x54e <__stack+0xef>
      {
	 pcd8544_print_at(">10A!", 3, 3);
     546:	8c e6       	ldi	r24, 0x6C	; 108
     548:	90 e0       	ldi	r25, 0x00	; 0
     54a:	63 e0       	ldi	r22, 0x03	; 3
     54c:	0f c0       	rjmp	.+30     	; 0x56c <__stack+0x10d>
      }
      else
      {
	 pcd8544_print_at("I=", 1, 3);
     54e:	82 e7       	ldi	r24, 0x72	; 114
     550:	90 e0       	ldi	r25, 0x00	; 0
     552:	61 e0       	ldi	r22, 0x01	; 1
     554:	43 e0       	ldi	r20, 0x03	; 3
     556:	e7 dd       	rcall	.-1074   	; 0x126 <pcd8544_print_at>
	 print_value(amps, 3, 3);
     558:	6f 2d       	mov	r22, r15
     55a:	70 2f       	mov	r23, r16
     55c:	81 2f       	mov	r24, r17
     55e:	9e 2d       	mov	r25, r14
     560:	43 e0       	ldi	r20, 0x03	; 3
     562:	23 e0       	ldi	r18, 0x03	; 3
     564:	0a de       	rcall	.-1004   	; 0x17a <print_value>
	 pcd8544_print_at("A", 10, 3);
     566:	85 e7       	ldi	r24, 0x75	; 117
     568:	90 e0       	ldi	r25, 0x00	; 0
     56a:	6a e0       	ldi	r22, 0x0A	; 10
     56c:	43 e0       	ldi	r20, 0x03	; 3
     56e:	db dd       	rcall	.-1098   	; 0x126 <pcd8544_print_at>
      }
      
      pcd8544_print_at("P=", 1, 4);
     570:	87 e7       	ldi	r24, 0x77	; 119
     572:	90 e0       	ldi	r25, 0x00	; 0
     574:	61 e0       	ldi	r22, 0x01	; 1
     576:	44 e0       	ldi	r20, 0x04	; 4
     578:	d6 dd       	rcall	.-1108   	; 0x126 <pcd8544_print_at>
      print_value(power, 3, 4);
     57a:	a4 01       	movw	r20, r8
     57c:	93 01       	movw	r18, r6
     57e:	65 2f       	mov	r22, r21
     580:	78 2d       	mov	r23, r8
     582:	83 2f       	mov	r24, r19
     584:	96 2d       	mov	r25, r6
     586:	43 e0       	ldi	r20, 0x03	; 3
     588:	24 e0       	ldi	r18, 0x04	; 4
     58a:	f7 dd       	rcall	.-1042   	; 0x17a <print_value>
      pcd8544_print_at("W", 10, 4);
     58c:	8a e7       	ldi	r24, 0x7A	; 122
     58e:	90 e0       	ldi	r25, 0x00	; 0
     590:	6a e0       	ldi	r22, 0x0A	; 10
     592:	44 e0       	ldi	r20, 0x04	; 4
     594:	c8 dd       	rcall	.-1136   	; 0x126 <pcd8544_print_at>
	#else
		//round up by default
		__ticks_dc = (uint32_t)(ceil(fabs(__tmp)));
	#endif

	__builtin_avr_delay_cycles(__ticks_dc);
     596:	8f e5       	ldi	r24, 0x5F	; 95
     598:	9a ee       	ldi	r25, 0xEA	; 234
     59a:	a0 e0       	ldi	r26, 0x00	; 0
     59c:	81 50       	subi	r24, 0x01	; 1
     59e:	90 40       	sbci	r25, 0x00	; 0
     5a0:	a0 40       	sbci	r26, 0x00	; 0
     5a2:	e1 f7       	brne	.-8      	; 0x59c <__stack+0x13d>
     5a4:	00 c0       	rjmp	.+0      	; 0x5a6 <__stack+0x147>
     5a6:	00 00       	nop
     5a8:	35 cf       	rjmp	.-406    	; 0x414 <main+0x1e>

000005aa <__fixunssfsi>:
     5aa:	ef 92       	push	r14
     5ac:	ff 92       	push	r15
     5ae:	0f 93       	push	r16
     5b0:	1f 93       	push	r17
     5b2:	7b 01       	movw	r14, r22
     5b4:	8c 01       	movw	r16, r24
     5b6:	20 e0       	ldi	r18, 0x00	; 0
     5b8:	30 e0       	ldi	r19, 0x00	; 0
     5ba:	40 e0       	ldi	r20, 0x00	; 0
     5bc:	5f e4       	ldi	r21, 0x4F	; 79
     5be:	80 d3       	rcall	.+1792   	; 0xcc0 <__gesf2>
     5c0:	87 fd       	sbrc	r24, 7
     5c2:	0f c0       	rjmp	.+30     	; 0x5e2 <__fixunssfsi+0x38>
     5c4:	c8 01       	movw	r24, r16
     5c6:	b7 01       	movw	r22, r14
     5c8:	20 e0       	ldi	r18, 0x00	; 0
     5ca:	30 e0       	ldi	r19, 0x00	; 0
     5cc:	40 e0       	ldi	r20, 0x00	; 0
     5ce:	5f e4       	ldi	r21, 0x4F	; 79
     5d0:	83 d1       	rcall	.+774    	; 0x8d8 <__subsf3>
     5d2:	cc d3       	rcall	.+1944   	; 0xd6c <__fixsfsi>
     5d4:	9b 01       	movw	r18, r22
     5d6:	ac 01       	movw	r20, r24
     5d8:	20 50       	subi	r18, 0x00	; 0
     5da:	30 40       	sbci	r19, 0x00	; 0
     5dc:	40 40       	sbci	r20, 0x00	; 0
     5de:	50 48       	sbci	r21, 0x80	; 128
     5e0:	05 c0       	rjmp	.+10     	; 0x5ec <__fixunssfsi+0x42>
     5e2:	c8 01       	movw	r24, r16
     5e4:	b7 01       	movw	r22, r14
     5e6:	c2 d3       	rcall	.+1924   	; 0xd6c <__fixsfsi>
     5e8:	9b 01       	movw	r18, r22
     5ea:	ac 01       	movw	r20, r24
     5ec:	b9 01       	movw	r22, r18
     5ee:	ca 01       	movw	r24, r20
     5f0:	1f 91       	pop	r17
     5f2:	0f 91       	pop	r16
     5f4:	ff 90       	pop	r15
     5f6:	ef 90       	pop	r14
     5f8:	08 95       	ret

000005fa <_fpadd_parts>:
     5fa:	a0 e0       	ldi	r26, 0x00	; 0
     5fc:	b0 e0       	ldi	r27, 0x00	; 0
     5fe:	e2 e0       	ldi	r30, 0x02	; 2
     600:	f3 e0       	ldi	r31, 0x03	; 3
     602:	70 c6       	rjmp	.+3296   	; 0x12e4 <__prologue_saves__+0x8>
     604:	fc 01       	movw	r30, r24
     606:	ea 01       	movw	r28, r20
     608:	80 81       	ld	r24, Z
     60a:	82 30       	cpi	r24, 0x02	; 2
     60c:	08 f4       	brcc	.+2      	; 0x610 <_fpadd_parts+0x16>
     60e:	38 c1       	rjmp	.+624    	; 0x880 <_fpadd_parts+0x286>
     610:	db 01       	movw	r26, r22
     612:	9c 91       	ld	r25, X
     614:	92 30       	cpi	r25, 0x02	; 2
     616:	08 f4       	brcc	.+2      	; 0x61a <_fpadd_parts+0x20>
     618:	30 c1       	rjmp	.+608    	; 0x87a <_fpadd_parts+0x280>
     61a:	84 30       	cpi	r24, 0x04	; 4
     61c:	59 f4       	brne	.+22     	; 0x634 <_fpadd_parts+0x3a>
     61e:	94 30       	cpi	r25, 0x04	; 4
     620:	09 f0       	breq	.+2      	; 0x624 <_fpadd_parts+0x2a>
     622:	2e c1       	rjmp	.+604    	; 0x880 <_fpadd_parts+0x286>
     624:	91 81       	ldd	r25, Z+1	; 0x01
     626:	11 96       	adiw	r26, 0x01	; 1
     628:	8c 91       	ld	r24, X
     62a:	11 97       	sbiw	r26, 0x01	; 1
     62c:	98 17       	cp	r25, r24
     62e:	09 f0       	breq	.+2      	; 0x632 <_fpadd_parts+0x38>
     630:	21 c1       	rjmp	.+578    	; 0x874 <_fpadd_parts+0x27a>
     632:	26 c1       	rjmp	.+588    	; 0x880 <_fpadd_parts+0x286>
     634:	94 30       	cpi	r25, 0x04	; 4
     636:	09 f4       	brne	.+2      	; 0x63a <_fpadd_parts+0x40>
     638:	20 c1       	rjmp	.+576    	; 0x87a <_fpadd_parts+0x280>
     63a:	92 30       	cpi	r25, 0x02	; 2
     63c:	b1 f4       	brne	.+44     	; 0x66a <_fpadd_parts+0x70>
     63e:	82 30       	cpi	r24, 0x02	; 2
     640:	09 f0       	breq	.+2      	; 0x644 <_fpadd_parts+0x4a>
     642:	1e c1       	rjmp	.+572    	; 0x880 <_fpadd_parts+0x286>
     644:	ca 01       	movw	r24, r20
     646:	af 01       	movw	r20, r30
     648:	28 e0       	ldi	r18, 0x08	; 8
     64a:	da 01       	movw	r26, r20
     64c:	0d 90       	ld	r0, X+
     64e:	ad 01       	movw	r20, r26
     650:	dc 01       	movw	r26, r24
     652:	0d 92       	st	X+, r0
     654:	cd 01       	movw	r24, r26
     656:	21 50       	subi	r18, 0x01	; 1
     658:	c1 f7       	brne	.-16     	; 0x64a <_fpadd_parts+0x50>
     65a:	db 01       	movw	r26, r22
     65c:	11 96       	adiw	r26, 0x01	; 1
     65e:	8c 91       	ld	r24, X
     660:	11 97       	sbiw	r26, 0x01	; 1
     662:	91 81       	ldd	r25, Z+1	; 0x01
     664:	89 23       	and	r24, r25
     666:	89 83       	std	Y+1, r24	; 0x01
     668:	0a c1       	rjmp	.+532    	; 0x87e <_fpadd_parts+0x284>
     66a:	82 30       	cpi	r24, 0x02	; 2
     66c:	09 f4       	brne	.+2      	; 0x670 <_fpadd_parts+0x76>
     66e:	05 c1       	rjmp	.+522    	; 0x87a <_fpadd_parts+0x280>
     670:	c2 80       	ldd	r12, Z+2	; 0x02
     672:	d3 80       	ldd	r13, Z+3	; 0x03
     674:	db 01       	movw	r26, r22
     676:	12 96       	adiw	r26, 0x02	; 2
     678:	6d 90       	ld	r6, X+
     67a:	7c 90       	ld	r7, X
     67c:	13 97       	sbiw	r26, 0x03	; 3
     67e:	24 81       	ldd	r18, Z+4	; 0x04
     680:	35 81       	ldd	r19, Z+5	; 0x05
     682:	46 81       	ldd	r20, Z+6	; 0x06
     684:	57 81       	ldd	r21, Z+7	; 0x07
     686:	14 96       	adiw	r26, 0x04	; 4
     688:	ed 90       	ld	r14, X+
     68a:	fd 90       	ld	r15, X+
     68c:	0d 91       	ld	r16, X+
     68e:	1c 91       	ld	r17, X
     690:	17 97       	sbiw	r26, 0x07	; 7
     692:	c6 01       	movw	r24, r12
     694:	86 19       	sub	r24, r6
     696:	97 09       	sbc	r25, r7
     698:	5c 01       	movw	r10, r24
     69a:	97 ff       	sbrs	r25, 7
     69c:	04 c0       	rjmp	.+8      	; 0x6a6 <_fpadd_parts+0xac>
     69e:	aa 24       	eor	r10, r10
     6a0:	bb 24       	eor	r11, r11
     6a2:	a8 1a       	sub	r10, r24
     6a4:	b9 0a       	sbc	r11, r25
     6a6:	b0 e2       	ldi	r27, 0x20	; 32
     6a8:	ab 16       	cp	r10, r27
     6aa:	b1 04       	cpc	r11, r1
     6ac:	0c f0       	brlt	.+2      	; 0x6b0 <_fpadd_parts+0xb6>
     6ae:	61 c0       	rjmp	.+194    	; 0x772 <_fpadd_parts+0x178>
     6b0:	18 16       	cp	r1, r24
     6b2:	19 06       	cpc	r1, r25
     6b4:	6c f5       	brge	.+90     	; 0x710 <_fpadd_parts+0x116>
     6b6:	37 01       	movw	r6, r14
     6b8:	48 01       	movw	r8, r16
     6ba:	0a 2c       	mov	r0, r10
     6bc:	04 c0       	rjmp	.+8      	; 0x6c6 <_fpadd_parts+0xcc>
     6be:	96 94       	lsr	r9
     6c0:	87 94       	ror	r8
     6c2:	77 94       	ror	r7
     6c4:	67 94       	ror	r6
     6c6:	0a 94       	dec	r0
     6c8:	d2 f7       	brpl	.-12     	; 0x6be <_fpadd_parts+0xc4>
     6ca:	81 e0       	ldi	r24, 0x01	; 1
     6cc:	90 e0       	ldi	r25, 0x00	; 0
     6ce:	a0 e0       	ldi	r26, 0x00	; 0
     6d0:	b0 e0       	ldi	r27, 0x00	; 0
     6d2:	0a 2c       	mov	r0, r10
     6d4:	04 c0       	rjmp	.+8      	; 0x6de <_fpadd_parts+0xe4>
     6d6:	88 0f       	add	r24, r24
     6d8:	99 1f       	adc	r25, r25
     6da:	aa 1f       	adc	r26, r26
     6dc:	bb 1f       	adc	r27, r27
     6de:	0a 94       	dec	r0
     6e0:	d2 f7       	brpl	.-12     	; 0x6d6 <_fpadd_parts+0xdc>
     6e2:	01 97       	sbiw	r24, 0x01	; 1
     6e4:	a1 09       	sbc	r26, r1
     6e6:	b1 09       	sbc	r27, r1
     6e8:	8e 21       	and	r24, r14
     6ea:	9f 21       	and	r25, r15
     6ec:	a0 23       	and	r26, r16
     6ee:	b1 23       	and	r27, r17
     6f0:	ee 24       	eor	r14, r14
     6f2:	ff 24       	eor	r15, r15
     6f4:	87 01       	movw	r16, r14
     6f6:	e3 94       	inc	r14
     6f8:	00 97       	sbiw	r24, 0x00	; 0
     6fa:	a1 05       	cpc	r26, r1
     6fc:	b1 05       	cpc	r27, r1
     6fe:	19 f4       	brne	.+6      	; 0x706 <_fpadd_parts+0x10c>
     700:	ee 24       	eor	r14, r14
     702:	ff 24       	eor	r15, r15
     704:	87 01       	movw	r16, r14
     706:	e6 28       	or	r14, r6
     708:	f7 28       	or	r15, r7
     70a:	08 29       	or	r16, r8
     70c:	19 29       	or	r17, r9
     70e:	3c c0       	rjmp	.+120    	; 0x788 <_fpadd_parts+0x18e>
     710:	00 97       	sbiw	r24, 0x00	; 0
     712:	d1 f1       	breq	.+116    	; 0x788 <_fpadd_parts+0x18e>
     714:	ca 0c       	add	r12, r10
     716:	db 1c       	adc	r13, r11
     718:	39 01       	movw	r6, r18
     71a:	4a 01       	movw	r8, r20
     71c:	0a 2c       	mov	r0, r10
     71e:	04 c0       	rjmp	.+8      	; 0x728 <_fpadd_parts+0x12e>
     720:	96 94       	lsr	r9
     722:	87 94       	ror	r8
     724:	77 94       	ror	r7
     726:	67 94       	ror	r6
     728:	0a 94       	dec	r0
     72a:	d2 f7       	brpl	.-12     	; 0x720 <_fpadd_parts+0x126>
     72c:	81 e0       	ldi	r24, 0x01	; 1
     72e:	90 e0       	ldi	r25, 0x00	; 0
     730:	a0 e0       	ldi	r26, 0x00	; 0
     732:	b0 e0       	ldi	r27, 0x00	; 0
     734:	0a 2c       	mov	r0, r10
     736:	04 c0       	rjmp	.+8      	; 0x740 <_fpadd_parts+0x146>
     738:	88 0f       	add	r24, r24
     73a:	99 1f       	adc	r25, r25
     73c:	aa 1f       	adc	r26, r26
     73e:	bb 1f       	adc	r27, r27
     740:	0a 94       	dec	r0
     742:	d2 f7       	brpl	.-12     	; 0x738 <_fpadd_parts+0x13e>
     744:	01 97       	sbiw	r24, 0x01	; 1
     746:	a1 09       	sbc	r26, r1
     748:	b1 09       	sbc	r27, r1
     74a:	82 23       	and	r24, r18
     74c:	93 23       	and	r25, r19
     74e:	a4 23       	and	r26, r20
     750:	b5 23       	and	r27, r21
     752:	21 e0       	ldi	r18, 0x01	; 1
     754:	30 e0       	ldi	r19, 0x00	; 0
     756:	40 e0       	ldi	r20, 0x00	; 0
     758:	50 e0       	ldi	r21, 0x00	; 0
     75a:	00 97       	sbiw	r24, 0x00	; 0
     75c:	a1 05       	cpc	r26, r1
     75e:	b1 05       	cpc	r27, r1
     760:	19 f4       	brne	.+6      	; 0x768 <_fpadd_parts+0x16e>
     762:	20 e0       	ldi	r18, 0x00	; 0
     764:	30 e0       	ldi	r19, 0x00	; 0
     766:	a9 01       	movw	r20, r18
     768:	26 29       	or	r18, r6
     76a:	37 29       	or	r19, r7
     76c:	48 29       	or	r20, r8
     76e:	59 29       	or	r21, r9
     770:	0b c0       	rjmp	.+22     	; 0x788 <_fpadd_parts+0x18e>
     772:	6c 14       	cp	r6, r12
     774:	7d 04       	cpc	r7, r13
     776:	24 f4       	brge	.+8      	; 0x780 <_fpadd_parts+0x186>
     778:	ee 24       	eor	r14, r14
     77a:	ff 24       	eor	r15, r15
     77c:	87 01       	movw	r16, r14
     77e:	04 c0       	rjmp	.+8      	; 0x788 <_fpadd_parts+0x18e>
     780:	63 01       	movw	r12, r6
     782:	20 e0       	ldi	r18, 0x00	; 0
     784:	30 e0       	ldi	r19, 0x00	; 0
     786:	a9 01       	movw	r20, r18
     788:	81 81       	ldd	r24, Z+1	; 0x01
     78a:	fb 01       	movw	r30, r22
     78c:	91 81       	ldd	r25, Z+1	; 0x01
     78e:	89 17       	cp	r24, r25
     790:	09 f4       	brne	.+2      	; 0x794 <_fpadd_parts+0x19a>
     792:	45 c0       	rjmp	.+138    	; 0x81e <_fpadd_parts+0x224>
     794:	88 23       	and	r24, r24
     796:	49 f0       	breq	.+18     	; 0x7aa <_fpadd_parts+0x1b0>
     798:	d8 01       	movw	r26, r16
     79a:	c7 01       	movw	r24, r14
     79c:	82 1b       	sub	r24, r18
     79e:	93 0b       	sbc	r25, r19
     7a0:	a4 0b       	sbc	r26, r20
     7a2:	b5 0b       	sbc	r27, r21
     7a4:	9c 01       	movw	r18, r24
     7a6:	ad 01       	movw	r20, r26
     7a8:	04 c0       	rjmp	.+8      	; 0x7b2 <_fpadd_parts+0x1b8>
     7aa:	2e 19       	sub	r18, r14
     7ac:	3f 09       	sbc	r19, r15
     7ae:	40 0b       	sbc	r20, r16
     7b0:	51 0b       	sbc	r21, r17
     7b2:	57 fd       	sbrc	r21, 7
     7b4:	04 c0       	rjmp	.+8      	; 0x7be <_fpadd_parts+0x1c4>
     7b6:	19 82       	std	Y+1, r1	; 0x01
     7b8:	db 82       	std	Y+3, r13	; 0x03
     7ba:	ca 82       	std	Y+2, r12	; 0x02
     7bc:	0b c0       	rjmp	.+22     	; 0x7d4 <_fpadd_parts+0x1da>
     7be:	81 e0       	ldi	r24, 0x01	; 1
     7c0:	89 83       	std	Y+1, r24	; 0x01
     7c2:	db 82       	std	Y+3, r13	; 0x03
     7c4:	ca 82       	std	Y+2, r12	; 0x02
     7c6:	50 95       	com	r21
     7c8:	40 95       	com	r20
     7ca:	30 95       	com	r19
     7cc:	21 95       	neg	r18
     7ce:	3f 4f       	sbci	r19, 0xFF	; 255
     7d0:	4f 4f       	sbci	r20, 0xFF	; 255
     7d2:	5f 4f       	sbci	r21, 0xFF	; 255
     7d4:	2c 83       	std	Y+4, r18	; 0x04
     7d6:	3d 83       	std	Y+5, r19	; 0x05
     7d8:	4e 83       	std	Y+6, r20	; 0x06
     7da:	5f 83       	std	Y+7, r21	; 0x07
     7dc:	0d c0       	rjmp	.+26     	; 0x7f8 <_fpadd_parts+0x1fe>
     7de:	88 0f       	add	r24, r24
     7e0:	99 1f       	adc	r25, r25
     7e2:	aa 1f       	adc	r26, r26
     7e4:	bb 1f       	adc	r27, r27
     7e6:	8c 83       	std	Y+4, r24	; 0x04
     7e8:	9d 83       	std	Y+5, r25	; 0x05
     7ea:	ae 83       	std	Y+6, r26	; 0x06
     7ec:	bf 83       	std	Y+7, r27	; 0x07
     7ee:	8a 81       	ldd	r24, Y+2	; 0x02
     7f0:	9b 81       	ldd	r25, Y+3	; 0x03
     7f2:	01 97       	sbiw	r24, 0x01	; 1
     7f4:	9b 83       	std	Y+3, r25	; 0x03
     7f6:	8a 83       	std	Y+2, r24	; 0x02
     7f8:	8c 81       	ldd	r24, Y+4	; 0x04
     7fa:	9d 81       	ldd	r25, Y+5	; 0x05
     7fc:	ae 81       	ldd	r26, Y+6	; 0x06
     7fe:	bf 81       	ldd	r27, Y+7	; 0x07
     800:	9c 01       	movw	r18, r24
     802:	ad 01       	movw	r20, r26
     804:	21 50       	subi	r18, 0x01	; 1
     806:	30 40       	sbci	r19, 0x00	; 0
     808:	40 40       	sbci	r20, 0x00	; 0
     80a:	50 40       	sbci	r21, 0x00	; 0
     80c:	2f 3f       	cpi	r18, 0xFF	; 255
     80e:	ef ef       	ldi	r30, 0xFF	; 255
     810:	3e 07       	cpc	r19, r30
     812:	ef ef       	ldi	r30, 0xFF	; 255
     814:	4e 07       	cpc	r20, r30
     816:	ef e3       	ldi	r30, 0x3F	; 63
     818:	5e 07       	cpc	r21, r30
     81a:	08 f3       	brcs	.-62     	; 0x7de <_fpadd_parts+0x1e4>
     81c:	0b c0       	rjmp	.+22     	; 0x834 <_fpadd_parts+0x23a>
     81e:	89 83       	std	Y+1, r24	; 0x01
     820:	db 82       	std	Y+3, r13	; 0x03
     822:	ca 82       	std	Y+2, r12	; 0x02
     824:	2e 0d       	add	r18, r14
     826:	3f 1d       	adc	r19, r15
     828:	40 1f       	adc	r20, r16
     82a:	51 1f       	adc	r21, r17
     82c:	2c 83       	std	Y+4, r18	; 0x04
     82e:	3d 83       	std	Y+5, r19	; 0x05
     830:	4e 83       	std	Y+6, r20	; 0x06
     832:	5f 83       	std	Y+7, r21	; 0x07
     834:	83 e0       	ldi	r24, 0x03	; 3
     836:	88 83       	st	Y, r24
     838:	2c 81       	ldd	r18, Y+4	; 0x04
     83a:	3d 81       	ldd	r19, Y+5	; 0x05
     83c:	4e 81       	ldd	r20, Y+6	; 0x06
     83e:	5f 81       	ldd	r21, Y+7	; 0x07
     840:	57 ff       	sbrs	r21, 7
     842:	1d c0       	rjmp	.+58     	; 0x87e <_fpadd_parts+0x284>
     844:	da 01       	movw	r26, r20
     846:	c9 01       	movw	r24, r18
     848:	81 70       	andi	r24, 0x01	; 1
     84a:	90 70       	andi	r25, 0x00	; 0
     84c:	a0 70       	andi	r26, 0x00	; 0
     84e:	b0 70       	andi	r27, 0x00	; 0
     850:	56 95       	lsr	r21
     852:	47 95       	ror	r20
     854:	37 95       	ror	r19
     856:	27 95       	ror	r18
     858:	82 2b       	or	r24, r18
     85a:	93 2b       	or	r25, r19
     85c:	a4 2b       	or	r26, r20
     85e:	b5 2b       	or	r27, r21
     860:	8c 83       	std	Y+4, r24	; 0x04
     862:	9d 83       	std	Y+5, r25	; 0x05
     864:	ae 83       	std	Y+6, r26	; 0x06
     866:	bf 83       	std	Y+7, r27	; 0x07
     868:	8a 81       	ldd	r24, Y+2	; 0x02
     86a:	9b 81       	ldd	r25, Y+3	; 0x03
     86c:	01 96       	adiw	r24, 0x01	; 1
     86e:	9b 83       	std	Y+3, r25	; 0x03
     870:	8a 83       	std	Y+2, r24	; 0x02
     872:	05 c0       	rjmp	.+10     	; 0x87e <_fpadd_parts+0x284>
     874:	ec e5       	ldi	r30, 0x5C	; 92
     876:	f2 e0       	ldi	r31, 0x02	; 2
     878:	03 c0       	rjmp	.+6      	; 0x880 <_fpadd_parts+0x286>
     87a:	fb 01       	movw	r30, r22
     87c:	01 c0       	rjmp	.+2      	; 0x880 <_fpadd_parts+0x286>
     87e:	fe 01       	movw	r30, r28
     880:	cf 01       	movw	r24, r30
     882:	cd b7       	in	r28, 0x3d	; 61
     884:	de b7       	in	r29, 0x3e	; 62
     886:	ee e0       	ldi	r30, 0x0E	; 14
     888:	49 c5       	rjmp	.+2706   	; 0x131c <__epilogue_restores__+0x8>

0000088a <__addsf3>:
     88a:	a0 e2       	ldi	r26, 0x20	; 32
     88c:	b0 e0       	ldi	r27, 0x00	; 0
     88e:	ea e4       	ldi	r30, 0x4A	; 74
     890:	f4 e0       	ldi	r31, 0x04	; 4
     892:	30 c5       	rjmp	.+2656   	; 0x12f4 <__prologue_saves__+0x18>
     894:	69 83       	std	Y+1, r22	; 0x01
     896:	7a 83       	std	Y+2, r23	; 0x02
     898:	8b 83       	std	Y+3, r24	; 0x03
     89a:	9c 83       	std	Y+4, r25	; 0x04
     89c:	2d 83       	std	Y+5, r18	; 0x05
     89e:	3e 83       	std	Y+6, r19	; 0x06
     8a0:	4f 83       	std	Y+7, r20	; 0x07
     8a2:	58 87       	std	Y+8, r21	; 0x08
     8a4:	89 e0       	ldi	r24, 0x09	; 9
     8a6:	e8 2e       	mov	r14, r24
     8a8:	f1 2c       	mov	r15, r1
     8aa:	ec 0e       	add	r14, r28
     8ac:	fd 1e       	adc	r15, r29
     8ae:	ce 01       	movw	r24, r28
     8b0:	01 96       	adiw	r24, 0x01	; 1
     8b2:	b7 01       	movw	r22, r14
     8b4:	45 d4       	rcall	.+2186   	; 0x1140 <__unpack_f>
     8b6:	8e 01       	movw	r16, r28
     8b8:	0f 5e       	subi	r16, 0xEF	; 239
     8ba:	1f 4f       	sbci	r17, 0xFF	; 255
     8bc:	ce 01       	movw	r24, r28
     8be:	05 96       	adiw	r24, 0x05	; 5
     8c0:	b8 01       	movw	r22, r16
     8c2:	3e d4       	rcall	.+2172   	; 0x1140 <__unpack_f>
     8c4:	c7 01       	movw	r24, r14
     8c6:	b8 01       	movw	r22, r16
     8c8:	ae 01       	movw	r20, r28
     8ca:	47 5e       	subi	r20, 0xE7	; 231
     8cc:	5f 4f       	sbci	r21, 0xFF	; 255
     8ce:	95 de       	rcall	.-726    	; 0x5fa <_fpadd_parts>
     8d0:	6a d3       	rcall	.+1748   	; 0xfa6 <__pack_f>
     8d2:	a0 96       	adiw	r28, 0x20	; 32
     8d4:	e6 e0       	ldi	r30, 0x06	; 6
     8d6:	2a c5       	rjmp	.+2644   	; 0x132c <__epilogue_restores__+0x18>

000008d8 <__subsf3>:
     8d8:	a0 e2       	ldi	r26, 0x20	; 32
     8da:	b0 e0       	ldi	r27, 0x00	; 0
     8dc:	e1 e7       	ldi	r30, 0x71	; 113
     8de:	f4 e0       	ldi	r31, 0x04	; 4
     8e0:	09 c5       	rjmp	.+2578   	; 0x12f4 <__prologue_saves__+0x18>
     8e2:	69 83       	std	Y+1, r22	; 0x01
     8e4:	7a 83       	std	Y+2, r23	; 0x02
     8e6:	8b 83       	std	Y+3, r24	; 0x03
     8e8:	9c 83       	std	Y+4, r25	; 0x04
     8ea:	2d 83       	std	Y+5, r18	; 0x05
     8ec:	3e 83       	std	Y+6, r19	; 0x06
     8ee:	4f 83       	std	Y+7, r20	; 0x07
     8f0:	58 87       	std	Y+8, r21	; 0x08
     8f2:	8e 01       	movw	r16, r28
     8f4:	07 5f       	subi	r16, 0xF7	; 247
     8f6:	1f 4f       	sbci	r17, 0xFF	; 255
     8f8:	ce 01       	movw	r24, r28
     8fa:	01 96       	adiw	r24, 0x01	; 1
     8fc:	b8 01       	movw	r22, r16
     8fe:	20 d4       	rcall	.+2112   	; 0x1140 <__unpack_f>
     900:	91 e1       	ldi	r25, 0x11	; 17
     902:	e9 2e       	mov	r14, r25
     904:	f1 2c       	mov	r15, r1
     906:	ec 0e       	add	r14, r28
     908:	fd 1e       	adc	r15, r29
     90a:	ce 01       	movw	r24, r28
     90c:	05 96       	adiw	r24, 0x05	; 5
     90e:	b7 01       	movw	r22, r14
     910:	17 d4       	rcall	.+2094   	; 0x1140 <__unpack_f>
     912:	8a 89       	ldd	r24, Y+18	; 0x12
     914:	91 e0       	ldi	r25, 0x01	; 1
     916:	89 27       	eor	r24, r25
     918:	8a 8b       	std	Y+18, r24	; 0x12
     91a:	c8 01       	movw	r24, r16
     91c:	b7 01       	movw	r22, r14
     91e:	ae 01       	movw	r20, r28
     920:	47 5e       	subi	r20, 0xE7	; 231
     922:	5f 4f       	sbci	r21, 0xFF	; 255
     924:	6a de       	rcall	.-812    	; 0x5fa <_fpadd_parts>
     926:	3f d3       	rcall	.+1662   	; 0xfa6 <__pack_f>
     928:	a0 96       	adiw	r28, 0x20	; 32
     92a:	e6 e0       	ldi	r30, 0x06	; 6
     92c:	ff c4       	rjmp	.+2558   	; 0x132c <__epilogue_restores__+0x18>

0000092e <__mulsf3>:
     92e:	a0 e2       	ldi	r26, 0x20	; 32
     930:	b0 e0       	ldi	r27, 0x00	; 0
     932:	ec e9       	ldi	r30, 0x9C	; 156
     934:	f4 e0       	ldi	r31, 0x04	; 4
     936:	d2 c4       	rjmp	.+2468   	; 0x12dc <__prologue_saves__>
     938:	69 83       	std	Y+1, r22	; 0x01
     93a:	7a 83       	std	Y+2, r23	; 0x02
     93c:	8b 83       	std	Y+3, r24	; 0x03
     93e:	9c 83       	std	Y+4, r25	; 0x04
     940:	2d 83       	std	Y+5, r18	; 0x05
     942:	3e 83       	std	Y+6, r19	; 0x06
     944:	4f 83       	std	Y+7, r20	; 0x07
     946:	58 87       	std	Y+8, r21	; 0x08
     948:	ce 01       	movw	r24, r28
     94a:	01 96       	adiw	r24, 0x01	; 1
     94c:	be 01       	movw	r22, r28
     94e:	67 5f       	subi	r22, 0xF7	; 247
     950:	7f 4f       	sbci	r23, 0xFF	; 255
     952:	f6 d3       	rcall	.+2028   	; 0x1140 <__unpack_f>
     954:	ce 01       	movw	r24, r28
     956:	05 96       	adiw	r24, 0x05	; 5
     958:	be 01       	movw	r22, r28
     95a:	6f 5e       	subi	r22, 0xEF	; 239
     95c:	7f 4f       	sbci	r23, 0xFF	; 255
     95e:	f0 d3       	rcall	.+2016   	; 0x1140 <__unpack_f>
     960:	99 85       	ldd	r25, Y+9	; 0x09
     962:	92 30       	cpi	r25, 0x02	; 2
     964:	78 f0       	brcs	.+30     	; 0x984 <__mulsf3+0x56>
     966:	89 89       	ldd	r24, Y+17	; 0x11
     968:	82 30       	cpi	r24, 0x02	; 2
     96a:	c0 f0       	brcs	.+48     	; 0x99c <__mulsf3+0x6e>
     96c:	94 30       	cpi	r25, 0x04	; 4
     96e:	19 f4       	brne	.+6      	; 0x976 <__mulsf3+0x48>
     970:	82 30       	cpi	r24, 0x02	; 2
     972:	41 f4       	brne	.+16     	; 0x984 <__mulsf3+0x56>
     974:	cb c0       	rjmp	.+406    	; 0xb0c <__mulsf3+0x1de>
     976:	84 30       	cpi	r24, 0x04	; 4
     978:	19 f4       	brne	.+6      	; 0x980 <__mulsf3+0x52>
     97a:	92 30       	cpi	r25, 0x02	; 2
     97c:	79 f4       	brne	.+30     	; 0x99c <__mulsf3+0x6e>
     97e:	c6 c0       	rjmp	.+396    	; 0xb0c <__mulsf3+0x1de>
     980:	92 30       	cpi	r25, 0x02	; 2
     982:	51 f4       	brne	.+20     	; 0x998 <__mulsf3+0x6a>
     984:	81 e0       	ldi	r24, 0x01	; 1
     986:	2a 85       	ldd	r18, Y+10	; 0x0a
     988:	9a 89       	ldd	r25, Y+18	; 0x12
     98a:	29 17       	cp	r18, r25
     98c:	09 f4       	brne	.+2      	; 0x990 <__mulsf3+0x62>
     98e:	80 e0       	ldi	r24, 0x00	; 0
     990:	8a 87       	std	Y+10, r24	; 0x0a
     992:	ce 01       	movw	r24, r28
     994:	09 96       	adiw	r24, 0x09	; 9
     996:	bc c0       	rjmp	.+376    	; 0xb10 <__mulsf3+0x1e2>
     998:	82 30       	cpi	r24, 0x02	; 2
     99a:	51 f4       	brne	.+20     	; 0x9b0 <__mulsf3+0x82>
     99c:	81 e0       	ldi	r24, 0x01	; 1
     99e:	2a 85       	ldd	r18, Y+10	; 0x0a
     9a0:	9a 89       	ldd	r25, Y+18	; 0x12
     9a2:	29 17       	cp	r18, r25
     9a4:	09 f4       	brne	.+2      	; 0x9a8 <__mulsf3+0x7a>
     9a6:	80 e0       	ldi	r24, 0x00	; 0
     9a8:	8a 8b       	std	Y+18, r24	; 0x12
     9aa:	ce 01       	movw	r24, r28
     9ac:	41 96       	adiw	r24, 0x11	; 17
     9ae:	b0 c0       	rjmp	.+352    	; 0xb10 <__mulsf3+0x1e2>
     9b0:	6d 84       	ldd	r6, Y+13	; 0x0d
     9b2:	7e 84       	ldd	r7, Y+14	; 0x0e
     9b4:	8f 84       	ldd	r8, Y+15	; 0x0f
     9b6:	98 88       	ldd	r9, Y+16	; 0x10
     9b8:	ed 88       	ldd	r14, Y+21	; 0x15
     9ba:	fe 88       	ldd	r15, Y+22	; 0x16
     9bc:	0f 89       	ldd	r16, Y+23	; 0x17
     9be:	18 8d       	ldd	r17, Y+24	; 0x18
     9c0:	e0 e2       	ldi	r30, 0x20	; 32
     9c2:	f0 e0       	ldi	r31, 0x00	; 0
     9c4:	80 e0       	ldi	r24, 0x00	; 0
     9c6:	90 e0       	ldi	r25, 0x00	; 0
     9c8:	dc 01       	movw	r26, r24
     9ca:	aa 24       	eor	r10, r10
     9cc:	bb 24       	eor	r11, r11
     9ce:	65 01       	movw	r12, r10
     9d0:	20 e0       	ldi	r18, 0x00	; 0
     9d2:	30 e0       	ldi	r19, 0x00	; 0
     9d4:	a9 01       	movw	r20, r18
     9d6:	b3 01       	movw	r22, r6
     9d8:	61 70       	andi	r22, 0x01	; 1
     9da:	70 70       	andi	r23, 0x00	; 0
     9dc:	61 15       	cp	r22, r1
     9de:	71 05       	cpc	r23, r1
     9e0:	d1 f0       	breq	.+52     	; 0xa16 <__mulsf3+0xe8>
     9e2:	2e 0d       	add	r18, r14
     9e4:	3f 1d       	adc	r19, r15
     9e6:	40 1f       	adc	r20, r16
     9e8:	51 1f       	adc	r21, r17
     9ea:	15 01       	movw	r2, r10
     9ec:	26 01       	movw	r4, r12
     9ee:	28 0e       	add	r2, r24
     9f0:	39 1e       	adc	r3, r25
     9f2:	4a 1e       	adc	r4, r26
     9f4:	5b 1e       	adc	r5, r27
     9f6:	81 e0       	ldi	r24, 0x01	; 1
     9f8:	90 e0       	ldi	r25, 0x00	; 0
     9fa:	a0 e0       	ldi	r26, 0x00	; 0
     9fc:	b0 e0       	ldi	r27, 0x00	; 0
     9fe:	2e 15       	cp	r18, r14
     a00:	3f 05       	cpc	r19, r15
     a02:	40 07       	cpc	r20, r16
     a04:	51 07       	cpc	r21, r17
     a06:	18 f0       	brcs	.+6      	; 0xa0e <__mulsf3+0xe0>
     a08:	80 e0       	ldi	r24, 0x00	; 0
     a0a:	90 e0       	ldi	r25, 0x00	; 0
     a0c:	dc 01       	movw	r26, r24
     a0e:	82 0d       	add	r24, r2
     a10:	93 1d       	adc	r25, r3
     a12:	a4 1d       	adc	r26, r4
     a14:	b5 1d       	adc	r27, r5
     a16:	aa 0c       	add	r10, r10
     a18:	bb 1c       	adc	r11, r11
     a1a:	cc 1c       	adc	r12, r12
     a1c:	dd 1c       	adc	r13, r13
     a1e:	17 ff       	sbrs	r17, 7
     a20:	09 c0       	rjmp	.+18     	; 0xa34 <__mulsf3+0x106>
     a22:	61 e0       	ldi	r22, 0x01	; 1
     a24:	26 2e       	mov	r2, r22
     a26:	31 2c       	mov	r3, r1
     a28:	41 2c       	mov	r4, r1
     a2a:	51 2c       	mov	r5, r1
     a2c:	a2 28       	or	r10, r2
     a2e:	b3 28       	or	r11, r3
     a30:	c4 28       	or	r12, r4
     a32:	d5 28       	or	r13, r5
     a34:	31 97       	sbiw	r30, 0x01	; 1
     a36:	49 f0       	breq	.+18     	; 0xa4a <__mulsf3+0x11c>
     a38:	ee 0c       	add	r14, r14
     a3a:	ff 1c       	adc	r15, r15
     a3c:	00 1f       	adc	r16, r16
     a3e:	11 1f       	adc	r17, r17
     a40:	96 94       	lsr	r9
     a42:	87 94       	ror	r8
     a44:	77 94       	ror	r7
     a46:	67 94       	ror	r6
     a48:	c6 cf       	rjmp	.-116    	; 0x9d6 <__mulsf3+0xa8>
     a4a:	6b 89       	ldd	r22, Y+19	; 0x13
     a4c:	7c 89       	ldd	r23, Y+20	; 0x14
     a4e:	eb 85       	ldd	r30, Y+11	; 0x0b
     a50:	fc 85       	ldd	r31, Y+12	; 0x0c
     a52:	6e 0f       	add	r22, r30
     a54:	7f 1f       	adc	r23, r31
     a56:	6e 5f       	subi	r22, 0xFE	; 254
     a58:	7f 4f       	sbci	r23, 0xFF	; 255
     a5a:	7c 8f       	std	Y+28, r23	; 0x1c
     a5c:	6b 8f       	std	Y+27, r22	; 0x1b
     a5e:	61 e0       	ldi	r22, 0x01	; 1
     a60:	ea 85       	ldd	r30, Y+10	; 0x0a
     a62:	7a 89       	ldd	r23, Y+18	; 0x12
     a64:	e7 17       	cp	r30, r23
     a66:	09 f4       	brne	.+2      	; 0xa6a <__mulsf3+0x13c>
     a68:	60 e0       	ldi	r22, 0x00	; 0
     a6a:	6a 8f       	std	Y+26, r22	; 0x1a
     a6c:	6b 8d       	ldd	r22, Y+27	; 0x1b
     a6e:	7c 8d       	ldd	r23, Y+28	; 0x1c
     a70:	10 c0       	rjmp	.+32     	; 0xa92 <__mulsf3+0x164>
     a72:	fc 01       	movw	r30, r24
     a74:	e1 70       	andi	r30, 0x01	; 1
     a76:	f0 70       	andi	r31, 0x00	; 0
     a78:	30 97       	sbiw	r30, 0x00	; 0
     a7a:	29 f0       	breq	.+10     	; 0xa86 <__mulsf3+0x158>
     a7c:	56 95       	lsr	r21
     a7e:	47 95       	ror	r20
     a80:	37 95       	ror	r19
     a82:	27 95       	ror	r18
     a84:	50 68       	ori	r21, 0x80	; 128
     a86:	b6 95       	lsr	r27
     a88:	a7 95       	ror	r26
     a8a:	97 95       	ror	r25
     a8c:	87 95       	ror	r24
     a8e:	6f 5f       	subi	r22, 0xFF	; 255
     a90:	7f 4f       	sbci	r23, 0xFF	; 255
     a92:	b7 fd       	sbrc	r27, 7
     a94:	ee cf       	rjmp	.-36     	; 0xa72 <__mulsf3+0x144>
     a96:	0c c0       	rjmp	.+24     	; 0xab0 <__mulsf3+0x182>
     a98:	88 0f       	add	r24, r24
     a9a:	99 1f       	adc	r25, r25
     a9c:	aa 1f       	adc	r26, r26
     a9e:	bb 1f       	adc	r27, r27
     aa0:	57 fd       	sbrc	r21, 7
     aa2:	81 60       	ori	r24, 0x01	; 1
     aa4:	22 0f       	add	r18, r18
     aa6:	33 1f       	adc	r19, r19
     aa8:	44 1f       	adc	r20, r20
     aaa:	55 1f       	adc	r21, r21
     aac:	61 50       	subi	r22, 0x01	; 1
     aae:	70 40       	sbci	r23, 0x00	; 0
     ab0:	80 30       	cpi	r24, 0x00	; 0
     ab2:	e0 e0       	ldi	r30, 0x00	; 0
     ab4:	9e 07       	cpc	r25, r30
     ab6:	e0 e0       	ldi	r30, 0x00	; 0
     ab8:	ae 07       	cpc	r26, r30
     aba:	e0 e4       	ldi	r30, 0x40	; 64
     abc:	be 07       	cpc	r27, r30
     abe:	60 f3       	brcs	.-40     	; 0xa98 <__mulsf3+0x16a>
     ac0:	6b 8f       	std	Y+27, r22	; 0x1b
     ac2:	7c 8f       	std	Y+28, r23	; 0x1c
     ac4:	6f e7       	ldi	r22, 0x7F	; 127
     ac6:	e6 2e       	mov	r14, r22
     ac8:	f1 2c       	mov	r15, r1
     aca:	01 2d       	mov	r16, r1
     acc:	11 2d       	mov	r17, r1
     ace:	e8 22       	and	r14, r24
     ad0:	f9 22       	and	r15, r25
     ad2:	0a 23       	and	r16, r26
     ad4:	1b 23       	and	r17, r27
     ad6:	60 e4       	ldi	r22, 0x40	; 64
     ad8:	e6 16       	cp	r14, r22
     ada:	f1 04       	cpc	r15, r1
     adc:	01 05       	cpc	r16, r1
     ade:	11 05       	cpc	r17, r1
     ae0:	61 f4       	brne	.+24     	; 0xafa <__mulsf3+0x1cc>
     ae2:	87 fd       	sbrc	r24, 7
     ae4:	0a c0       	rjmp	.+20     	; 0xafa <__mulsf3+0x1cc>
     ae6:	21 15       	cp	r18, r1
     ae8:	31 05       	cpc	r19, r1
     aea:	41 05       	cpc	r20, r1
     aec:	51 05       	cpc	r21, r1
     aee:	29 f0       	breq	.+10     	; 0xafa <__mulsf3+0x1cc>
     af0:	80 5c       	subi	r24, 0xC0	; 192
     af2:	9f 4f       	sbci	r25, 0xFF	; 255
     af4:	af 4f       	sbci	r26, 0xFF	; 255
     af6:	bf 4f       	sbci	r27, 0xFF	; 255
     af8:	80 78       	andi	r24, 0x80	; 128
     afa:	8d 8f       	std	Y+29, r24	; 0x1d
     afc:	9e 8f       	std	Y+30, r25	; 0x1e
     afe:	af 8f       	std	Y+31, r26	; 0x1f
     b00:	b8 a3       	std	Y+32, r27	; 0x20
     b02:	83 e0       	ldi	r24, 0x03	; 3
     b04:	89 8f       	std	Y+25, r24	; 0x19
     b06:	ce 01       	movw	r24, r28
     b08:	49 96       	adiw	r24, 0x19	; 25
     b0a:	02 c0       	rjmp	.+4      	; 0xb10 <__mulsf3+0x1e2>
     b0c:	8c e5       	ldi	r24, 0x5C	; 92
     b0e:	92 e0       	ldi	r25, 0x02	; 2
     b10:	4a d2       	rcall	.+1172   	; 0xfa6 <__pack_f>
     b12:	a0 96       	adiw	r28, 0x20	; 32
     b14:	e2 e1       	ldi	r30, 0x12	; 18
     b16:	fe c3       	rjmp	.+2044   	; 0x1314 <__epilogue_restores__>

00000b18 <__divsf3>:
     b18:	a8 e1       	ldi	r26, 0x18	; 24
     b1a:	b0 e0       	ldi	r27, 0x00	; 0
     b1c:	e1 e9       	ldi	r30, 0x91	; 145
     b1e:	f5 e0       	ldi	r31, 0x05	; 5
     b20:	e5 c3       	rjmp	.+1994   	; 0x12ec <__prologue_saves__+0x10>
     b22:	69 83       	std	Y+1, r22	; 0x01
     b24:	7a 83       	std	Y+2, r23	; 0x02
     b26:	8b 83       	std	Y+3, r24	; 0x03
     b28:	9c 83       	std	Y+4, r25	; 0x04
     b2a:	2d 83       	std	Y+5, r18	; 0x05
     b2c:	3e 83       	std	Y+6, r19	; 0x06
     b2e:	4f 83       	std	Y+7, r20	; 0x07
     b30:	58 87       	std	Y+8, r21	; 0x08
     b32:	8e 01       	movw	r16, r28
     b34:	07 5f       	subi	r16, 0xF7	; 247
     b36:	1f 4f       	sbci	r17, 0xFF	; 255
     b38:	ce 01       	movw	r24, r28
     b3a:	01 96       	adiw	r24, 0x01	; 1
     b3c:	b8 01       	movw	r22, r16
     b3e:	00 d3       	rcall	.+1536   	; 0x1140 <__unpack_f>
     b40:	81 e1       	ldi	r24, 0x11	; 17
     b42:	e8 2e       	mov	r14, r24
     b44:	f1 2c       	mov	r15, r1
     b46:	ec 0e       	add	r14, r28
     b48:	fd 1e       	adc	r15, r29
     b4a:	ce 01       	movw	r24, r28
     b4c:	05 96       	adiw	r24, 0x05	; 5
     b4e:	b7 01       	movw	r22, r14
     b50:	f7 d2       	rcall	.+1518   	; 0x1140 <__unpack_f>
     b52:	99 85       	ldd	r25, Y+9	; 0x09
     b54:	92 30       	cpi	r25, 0x02	; 2
     b56:	08 f4       	brcc	.+2      	; 0xb5a <__divsf3+0x42>
     b58:	83 c0       	rjmp	.+262    	; 0xc60 <__divsf3+0x148>
     b5a:	89 89       	ldd	r24, Y+17	; 0x11
     b5c:	82 30       	cpi	r24, 0x02	; 2
     b5e:	08 f4       	brcc	.+2      	; 0xb62 <__divsf3+0x4a>
     b60:	7b c0       	rjmp	.+246    	; 0xc58 <__divsf3+0x140>
     b62:	2a 85       	ldd	r18, Y+10	; 0x0a
     b64:	3a 89       	ldd	r19, Y+18	; 0x12
     b66:	23 27       	eor	r18, r19
     b68:	2a 87       	std	Y+10, r18	; 0x0a
     b6a:	94 30       	cpi	r25, 0x04	; 4
     b6c:	11 f0       	breq	.+4      	; 0xb72 <__divsf3+0x5a>
     b6e:	92 30       	cpi	r25, 0x02	; 2
     b70:	21 f4       	brne	.+8      	; 0xb7a <__divsf3+0x62>
     b72:	98 17       	cp	r25, r24
     b74:	09 f0       	breq	.+2      	; 0xb78 <__divsf3+0x60>
     b76:	6c c0       	rjmp	.+216    	; 0xc50 <__divsf3+0x138>
     b78:	71 c0       	rjmp	.+226    	; 0xc5c <__divsf3+0x144>
     b7a:	84 30       	cpi	r24, 0x04	; 4
     b7c:	39 f4       	brne	.+14     	; 0xb8c <__divsf3+0x74>
     b7e:	1d 86       	std	Y+13, r1	; 0x0d
     b80:	1e 86       	std	Y+14, r1	; 0x0e
     b82:	1f 86       	std	Y+15, r1	; 0x0f
     b84:	18 8a       	std	Y+16, r1	; 0x10
     b86:	1c 86       	std	Y+12, r1	; 0x0c
     b88:	1b 86       	std	Y+11, r1	; 0x0b
     b8a:	6a c0       	rjmp	.+212    	; 0xc60 <__divsf3+0x148>
     b8c:	82 30       	cpi	r24, 0x02	; 2
     b8e:	19 f4       	brne	.+6      	; 0xb96 <__divsf3+0x7e>
     b90:	84 e0       	ldi	r24, 0x04	; 4
     b92:	89 87       	std	Y+9, r24	; 0x09
     b94:	65 c0       	rjmp	.+202    	; 0xc60 <__divsf3+0x148>
     b96:	8b 85       	ldd	r24, Y+11	; 0x0b
     b98:	9c 85       	ldd	r25, Y+12	; 0x0c
     b9a:	2b 89       	ldd	r18, Y+19	; 0x13
     b9c:	3c 89       	ldd	r19, Y+20	; 0x14
     b9e:	82 1b       	sub	r24, r18
     ba0:	93 0b       	sbc	r25, r19
     ba2:	9c 87       	std	Y+12, r25	; 0x0c
     ba4:	8b 87       	std	Y+11, r24	; 0x0b
     ba6:	2d 85       	ldd	r18, Y+13	; 0x0d
     ba8:	3e 85       	ldd	r19, Y+14	; 0x0e
     baa:	4f 85       	ldd	r20, Y+15	; 0x0f
     bac:	58 89       	ldd	r21, Y+16	; 0x10
     bae:	ed 88       	ldd	r14, Y+21	; 0x15
     bb0:	fe 88       	ldd	r15, Y+22	; 0x16
     bb2:	0f 89       	ldd	r16, Y+23	; 0x17
     bb4:	18 8d       	ldd	r17, Y+24	; 0x18
     bb6:	2e 15       	cp	r18, r14
     bb8:	3f 05       	cpc	r19, r15
     bba:	40 07       	cpc	r20, r16
     bbc:	51 07       	cpc	r21, r17
     bbe:	38 f4       	brcc	.+14     	; 0xbce <__divsf3+0xb6>
     bc0:	22 0f       	add	r18, r18
     bc2:	33 1f       	adc	r19, r19
     bc4:	44 1f       	adc	r20, r20
     bc6:	55 1f       	adc	r21, r21
     bc8:	01 97       	sbiw	r24, 0x01	; 1
     bca:	9c 87       	std	Y+12, r25	; 0x0c
     bcc:	8b 87       	std	Y+11, r24	; 0x0b
     bce:	6f e1       	ldi	r22, 0x1F	; 31
     bd0:	70 e0       	ldi	r23, 0x00	; 0
     bd2:	a1 2c       	mov	r10, r1
     bd4:	b1 2c       	mov	r11, r1
     bd6:	c1 2c       	mov	r12, r1
     bd8:	a0 e4       	ldi	r26, 0x40	; 64
     bda:	da 2e       	mov	r13, r26
     bdc:	80 e0       	ldi	r24, 0x00	; 0
     bde:	90 e0       	ldi	r25, 0x00	; 0
     be0:	dc 01       	movw	r26, r24
     be2:	2e 15       	cp	r18, r14
     be4:	3f 05       	cpc	r19, r15
     be6:	40 07       	cpc	r20, r16
     be8:	51 07       	cpc	r21, r17
     bea:	40 f0       	brcs	.+16     	; 0xbfc <__divsf3+0xe4>
     bec:	8a 29       	or	r24, r10
     bee:	9b 29       	or	r25, r11
     bf0:	ac 29       	or	r26, r12
     bf2:	bd 29       	or	r27, r13
     bf4:	2e 19       	sub	r18, r14
     bf6:	3f 09       	sbc	r19, r15
     bf8:	40 0b       	sbc	r20, r16
     bfa:	51 0b       	sbc	r21, r17
     bfc:	d6 94       	lsr	r13
     bfe:	c7 94       	ror	r12
     c00:	b7 94       	ror	r11
     c02:	a7 94       	ror	r10
     c04:	22 0f       	add	r18, r18
     c06:	33 1f       	adc	r19, r19
     c08:	44 1f       	adc	r20, r20
     c0a:	55 1f       	adc	r21, r21
     c0c:	61 50       	subi	r22, 0x01	; 1
     c0e:	70 40       	sbci	r23, 0x00	; 0
     c10:	41 f7       	brne	.-48     	; 0xbe2 <__divsf3+0xca>
     c12:	6f e7       	ldi	r22, 0x7F	; 127
     c14:	e6 2e       	mov	r14, r22
     c16:	f1 2c       	mov	r15, r1
     c18:	01 2d       	mov	r16, r1
     c1a:	11 2d       	mov	r17, r1
     c1c:	e8 22       	and	r14, r24
     c1e:	f9 22       	and	r15, r25
     c20:	0a 23       	and	r16, r26
     c22:	1b 23       	and	r17, r27
     c24:	60 e4       	ldi	r22, 0x40	; 64
     c26:	e6 16       	cp	r14, r22
     c28:	f1 04       	cpc	r15, r1
     c2a:	01 05       	cpc	r16, r1
     c2c:	11 05       	cpc	r17, r1
     c2e:	61 f4       	brne	.+24     	; 0xc48 <__divsf3+0x130>
     c30:	87 fd       	sbrc	r24, 7
     c32:	0a c0       	rjmp	.+20     	; 0xc48 <__divsf3+0x130>
     c34:	21 15       	cp	r18, r1
     c36:	31 05       	cpc	r19, r1
     c38:	41 05       	cpc	r20, r1
     c3a:	51 05       	cpc	r21, r1
     c3c:	29 f0       	breq	.+10     	; 0xc48 <__divsf3+0x130>
     c3e:	80 5c       	subi	r24, 0xC0	; 192
     c40:	9f 4f       	sbci	r25, 0xFF	; 255
     c42:	af 4f       	sbci	r26, 0xFF	; 255
     c44:	bf 4f       	sbci	r27, 0xFF	; 255
     c46:	80 78       	andi	r24, 0x80	; 128
     c48:	8d 87       	std	Y+13, r24	; 0x0d
     c4a:	9e 87       	std	Y+14, r25	; 0x0e
     c4c:	af 87       	std	Y+15, r26	; 0x0f
     c4e:	b8 8b       	std	Y+16, r27	; 0x10
     c50:	8e 01       	movw	r16, r28
     c52:	07 5f       	subi	r16, 0xF7	; 247
     c54:	1f 4f       	sbci	r17, 0xFF	; 255
     c56:	04 c0       	rjmp	.+8      	; 0xc60 <__divsf3+0x148>
     c58:	87 01       	movw	r16, r14
     c5a:	02 c0       	rjmp	.+4      	; 0xc60 <__divsf3+0x148>
     c5c:	0c e5       	ldi	r16, 0x5C	; 92
     c5e:	12 e0       	ldi	r17, 0x02	; 2
     c60:	c8 01       	movw	r24, r16
     c62:	a1 d1       	rcall	.+834    	; 0xfa6 <__pack_f>
     c64:	68 96       	adiw	r28, 0x18	; 24
     c66:	ea e0       	ldi	r30, 0x0A	; 10
     c68:	5d c3       	rjmp	.+1722   	; 0x1324 <__epilogue_restores__+0x10>

00000c6a <__gtsf2>:
     c6a:	a8 e1       	ldi	r26, 0x18	; 24
     c6c:	b0 e0       	ldi	r27, 0x00	; 0
     c6e:	ea e3       	ldi	r30, 0x3A	; 58
     c70:	f6 e0       	ldi	r31, 0x06	; 6
     c72:	40 c3       	rjmp	.+1664   	; 0x12f4 <__prologue_saves__+0x18>
     c74:	69 83       	std	Y+1, r22	; 0x01
     c76:	7a 83       	std	Y+2, r23	; 0x02
     c78:	8b 83       	std	Y+3, r24	; 0x03
     c7a:	9c 83       	std	Y+4, r25	; 0x04
     c7c:	2d 83       	std	Y+5, r18	; 0x05
     c7e:	3e 83       	std	Y+6, r19	; 0x06
     c80:	4f 83       	std	Y+7, r20	; 0x07
     c82:	58 87       	std	Y+8, r21	; 0x08
     c84:	8e 01       	movw	r16, r28
     c86:	07 5f       	subi	r16, 0xF7	; 247
     c88:	1f 4f       	sbci	r17, 0xFF	; 255
     c8a:	ce 01       	movw	r24, r28
     c8c:	01 96       	adiw	r24, 0x01	; 1
     c8e:	b8 01       	movw	r22, r16
     c90:	57 d2       	rcall	.+1198   	; 0x1140 <__unpack_f>
     c92:	81 e1       	ldi	r24, 0x11	; 17
     c94:	e8 2e       	mov	r14, r24
     c96:	f1 2c       	mov	r15, r1
     c98:	ec 0e       	add	r14, r28
     c9a:	fd 1e       	adc	r15, r29
     c9c:	ce 01       	movw	r24, r28
     c9e:	05 96       	adiw	r24, 0x05	; 5
     ca0:	b7 01       	movw	r22, r14
     ca2:	4e d2       	rcall	.+1180   	; 0x1140 <__unpack_f>
     ca4:	89 85       	ldd	r24, Y+9	; 0x09
     ca6:	82 30       	cpi	r24, 0x02	; 2
     ca8:	38 f0       	brcs	.+14     	; 0xcb8 <__gtsf2+0x4e>
     caa:	89 89       	ldd	r24, Y+17	; 0x11
     cac:	82 30       	cpi	r24, 0x02	; 2
     cae:	20 f0       	brcs	.+8      	; 0xcb8 <__gtsf2+0x4e>
     cb0:	c8 01       	movw	r24, r16
     cb2:	b7 01       	movw	r22, r14
     cb4:	ae d2       	rcall	.+1372   	; 0x1212 <__fpcmp_parts_f>
     cb6:	01 c0       	rjmp	.+2      	; 0xcba <__gtsf2+0x50>
     cb8:	8f ef       	ldi	r24, 0xFF	; 255
     cba:	68 96       	adiw	r28, 0x18	; 24
     cbc:	e6 e0       	ldi	r30, 0x06	; 6
     cbe:	36 c3       	rjmp	.+1644   	; 0x132c <__epilogue_restores__+0x18>

00000cc0 <__gesf2>:
     cc0:	a8 e1       	ldi	r26, 0x18	; 24
     cc2:	b0 e0       	ldi	r27, 0x00	; 0
     cc4:	e5 e6       	ldi	r30, 0x65	; 101
     cc6:	f6 e0       	ldi	r31, 0x06	; 6
     cc8:	15 c3       	rjmp	.+1578   	; 0x12f4 <__prologue_saves__+0x18>
     cca:	69 83       	std	Y+1, r22	; 0x01
     ccc:	7a 83       	std	Y+2, r23	; 0x02
     cce:	8b 83       	std	Y+3, r24	; 0x03
     cd0:	9c 83       	std	Y+4, r25	; 0x04
     cd2:	2d 83       	std	Y+5, r18	; 0x05
     cd4:	3e 83       	std	Y+6, r19	; 0x06
     cd6:	4f 83       	std	Y+7, r20	; 0x07
     cd8:	58 87       	std	Y+8, r21	; 0x08
     cda:	8e 01       	movw	r16, r28
     cdc:	07 5f       	subi	r16, 0xF7	; 247
     cde:	1f 4f       	sbci	r17, 0xFF	; 255
     ce0:	ce 01       	movw	r24, r28
     ce2:	01 96       	adiw	r24, 0x01	; 1
     ce4:	b8 01       	movw	r22, r16
     ce6:	2c d2       	rcall	.+1112   	; 0x1140 <__unpack_f>
     ce8:	81 e1       	ldi	r24, 0x11	; 17
     cea:	e8 2e       	mov	r14, r24
     cec:	f1 2c       	mov	r15, r1
     cee:	ec 0e       	add	r14, r28
     cf0:	fd 1e       	adc	r15, r29
     cf2:	ce 01       	movw	r24, r28
     cf4:	05 96       	adiw	r24, 0x05	; 5
     cf6:	b7 01       	movw	r22, r14
     cf8:	23 d2       	rcall	.+1094   	; 0x1140 <__unpack_f>
     cfa:	89 85       	ldd	r24, Y+9	; 0x09
     cfc:	82 30       	cpi	r24, 0x02	; 2
     cfe:	38 f0       	brcs	.+14     	; 0xd0e <__gesf2+0x4e>
     d00:	89 89       	ldd	r24, Y+17	; 0x11
     d02:	82 30       	cpi	r24, 0x02	; 2
     d04:	20 f0       	brcs	.+8      	; 0xd0e <__gesf2+0x4e>
     d06:	c8 01       	movw	r24, r16
     d08:	b7 01       	movw	r22, r14
     d0a:	83 d2       	rcall	.+1286   	; 0x1212 <__fpcmp_parts_f>
     d0c:	01 c0       	rjmp	.+2      	; 0xd10 <__gesf2+0x50>
     d0e:	8f ef       	ldi	r24, 0xFF	; 255
     d10:	68 96       	adiw	r28, 0x18	; 24
     d12:	e6 e0       	ldi	r30, 0x06	; 6
     d14:	0b c3       	rjmp	.+1558   	; 0x132c <__epilogue_restores__+0x18>

00000d16 <__ltsf2>:
     d16:	a8 e1       	ldi	r26, 0x18	; 24
     d18:	b0 e0       	ldi	r27, 0x00	; 0
     d1a:	e0 e9       	ldi	r30, 0x90	; 144
     d1c:	f6 e0       	ldi	r31, 0x06	; 6
     d1e:	ea c2       	rjmp	.+1492   	; 0x12f4 <__prologue_saves__+0x18>
     d20:	69 83       	std	Y+1, r22	; 0x01
     d22:	7a 83       	std	Y+2, r23	; 0x02
     d24:	8b 83       	std	Y+3, r24	; 0x03
     d26:	9c 83       	std	Y+4, r25	; 0x04
     d28:	2d 83       	std	Y+5, r18	; 0x05
     d2a:	3e 83       	std	Y+6, r19	; 0x06
     d2c:	4f 83       	std	Y+7, r20	; 0x07
     d2e:	58 87       	std	Y+8, r21	; 0x08
     d30:	8e 01       	movw	r16, r28
     d32:	07 5f       	subi	r16, 0xF7	; 247
     d34:	1f 4f       	sbci	r17, 0xFF	; 255
     d36:	ce 01       	movw	r24, r28
     d38:	01 96       	adiw	r24, 0x01	; 1
     d3a:	b8 01       	movw	r22, r16
     d3c:	01 d2       	rcall	.+1026   	; 0x1140 <__unpack_f>
     d3e:	81 e1       	ldi	r24, 0x11	; 17
     d40:	e8 2e       	mov	r14, r24
     d42:	f1 2c       	mov	r15, r1
     d44:	ec 0e       	add	r14, r28
     d46:	fd 1e       	adc	r15, r29
     d48:	ce 01       	movw	r24, r28
     d4a:	05 96       	adiw	r24, 0x05	; 5
     d4c:	b7 01       	movw	r22, r14
     d4e:	f8 d1       	rcall	.+1008   	; 0x1140 <__unpack_f>
     d50:	89 85       	ldd	r24, Y+9	; 0x09
     d52:	82 30       	cpi	r24, 0x02	; 2
     d54:	38 f0       	brcs	.+14     	; 0xd64 <__ltsf2+0x4e>
     d56:	89 89       	ldd	r24, Y+17	; 0x11
     d58:	82 30       	cpi	r24, 0x02	; 2
     d5a:	20 f0       	brcs	.+8      	; 0xd64 <__ltsf2+0x4e>
     d5c:	c8 01       	movw	r24, r16
     d5e:	b7 01       	movw	r22, r14
     d60:	58 d2       	rcall	.+1200   	; 0x1212 <__fpcmp_parts_f>
     d62:	01 c0       	rjmp	.+2      	; 0xd66 <__ltsf2+0x50>
     d64:	81 e0       	ldi	r24, 0x01	; 1
     d66:	68 96       	adiw	r28, 0x18	; 24
     d68:	e6 e0       	ldi	r30, 0x06	; 6
     d6a:	e0 c2       	rjmp	.+1472   	; 0x132c <__epilogue_restores__+0x18>

00000d6c <__fixsfsi>:
     d6c:	ac e0       	ldi	r26, 0x0C	; 12
     d6e:	b0 e0       	ldi	r27, 0x00	; 0
     d70:	eb eb       	ldi	r30, 0xBB	; 187
     d72:	f6 e0       	ldi	r31, 0x06	; 6
     d74:	c3 c2       	rjmp	.+1414   	; 0x12fc <__prologue_saves__+0x20>
     d76:	69 83       	std	Y+1, r22	; 0x01
     d78:	7a 83       	std	Y+2, r23	; 0x02
     d7a:	8b 83       	std	Y+3, r24	; 0x03
     d7c:	9c 83       	std	Y+4, r25	; 0x04
     d7e:	ce 01       	movw	r24, r28
     d80:	01 96       	adiw	r24, 0x01	; 1
     d82:	be 01       	movw	r22, r28
     d84:	6b 5f       	subi	r22, 0xFB	; 251
     d86:	7f 4f       	sbci	r23, 0xFF	; 255
     d88:	db d1       	rcall	.+950    	; 0x1140 <__unpack_f>
     d8a:	8d 81       	ldd	r24, Y+5	; 0x05
     d8c:	82 30       	cpi	r24, 0x02	; 2
     d8e:	81 f1       	breq	.+96     	; 0xdf0 <__fixsfsi+0x84>
     d90:	82 30       	cpi	r24, 0x02	; 2
     d92:	70 f1       	brcs	.+92     	; 0xdf0 <__fixsfsi+0x84>
     d94:	84 30       	cpi	r24, 0x04	; 4
     d96:	21 f4       	brne	.+8      	; 0xda0 <__fixsfsi+0x34>
     d98:	8e 81       	ldd	r24, Y+6	; 0x06
     d9a:	88 23       	and	r24, r24
     d9c:	69 f1       	breq	.+90     	; 0xdf8 <__fixsfsi+0x8c>
     d9e:	0a c0       	rjmp	.+20     	; 0xdb4 <__fixsfsi+0x48>
     da0:	2f 81       	ldd	r18, Y+7	; 0x07
     da2:	38 85       	ldd	r19, Y+8	; 0x08
     da4:	37 fd       	sbrc	r19, 7
     da6:	24 c0       	rjmp	.+72     	; 0xdf0 <__fixsfsi+0x84>
     da8:	6e 81       	ldd	r22, Y+6	; 0x06
     daa:	2f 31       	cpi	r18, 0x1F	; 31
     dac:	31 05       	cpc	r19, r1
     dae:	3c f0       	brlt	.+14     	; 0xdbe <__fixsfsi+0x52>
     db0:	66 23       	and	r22, r22
     db2:	11 f1       	breq	.+68     	; 0xdf8 <__fixsfsi+0x8c>
     db4:	20 e0       	ldi	r18, 0x00	; 0
     db6:	30 e0       	ldi	r19, 0x00	; 0
     db8:	40 e0       	ldi	r20, 0x00	; 0
     dba:	50 e8       	ldi	r21, 0x80	; 128
     dbc:	21 c0       	rjmp	.+66     	; 0xe00 <__fixsfsi+0x94>
     dbe:	8e e1       	ldi	r24, 0x1E	; 30
     dc0:	90 e0       	ldi	r25, 0x00	; 0
     dc2:	82 1b       	sub	r24, r18
     dc4:	93 0b       	sbc	r25, r19
     dc6:	29 85       	ldd	r18, Y+9	; 0x09
     dc8:	3a 85       	ldd	r19, Y+10	; 0x0a
     dca:	4b 85       	ldd	r20, Y+11	; 0x0b
     dcc:	5c 85       	ldd	r21, Y+12	; 0x0c
     dce:	04 c0       	rjmp	.+8      	; 0xdd8 <__fixsfsi+0x6c>
     dd0:	56 95       	lsr	r21
     dd2:	47 95       	ror	r20
     dd4:	37 95       	ror	r19
     dd6:	27 95       	ror	r18
     dd8:	8a 95       	dec	r24
     dda:	d2 f7       	brpl	.-12     	; 0xdd0 <__fixsfsi+0x64>
     ddc:	66 23       	and	r22, r22
     dde:	81 f0       	breq	.+32     	; 0xe00 <__fixsfsi+0x94>
     de0:	50 95       	com	r21
     de2:	40 95       	com	r20
     de4:	30 95       	com	r19
     de6:	21 95       	neg	r18
     de8:	3f 4f       	sbci	r19, 0xFF	; 255
     dea:	4f 4f       	sbci	r20, 0xFF	; 255
     dec:	5f 4f       	sbci	r21, 0xFF	; 255
     dee:	08 c0       	rjmp	.+16     	; 0xe00 <__fixsfsi+0x94>
     df0:	20 e0       	ldi	r18, 0x00	; 0
     df2:	30 e0       	ldi	r19, 0x00	; 0
     df4:	a9 01       	movw	r20, r18
     df6:	04 c0       	rjmp	.+8      	; 0xe00 <__fixsfsi+0x94>
     df8:	2f ef       	ldi	r18, 0xFF	; 255
     dfa:	3f ef       	ldi	r19, 0xFF	; 255
     dfc:	4f ef       	ldi	r20, 0xFF	; 255
     dfe:	5f e7       	ldi	r21, 0x7F	; 127
     e00:	b9 01       	movw	r22, r18
     e02:	ca 01       	movw	r24, r20
     e04:	2c 96       	adiw	r28, 0x0c	; 12
     e06:	e2 e0       	ldi	r30, 0x02	; 2
     e08:	95 c2       	rjmp	.+1322   	; 0x1334 <__epilogue_restores__+0x20>

00000e0a <__floatunsisf>:
     e0a:	a8 e0       	ldi	r26, 0x08	; 8
     e0c:	b0 e0       	ldi	r27, 0x00	; 0
     e0e:	ea e0       	ldi	r30, 0x0A	; 10
     e10:	f7 e0       	ldi	r31, 0x07	; 7
     e12:	6e c2       	rjmp	.+1244   	; 0x12f0 <__prologue_saves__+0x14>
     e14:	7b 01       	movw	r14, r22
     e16:	8c 01       	movw	r16, r24
     e18:	1a 82       	std	Y+2, r1	; 0x02
     e1a:	61 15       	cp	r22, r1
     e1c:	71 05       	cpc	r23, r1
     e1e:	81 05       	cpc	r24, r1
     e20:	91 05       	cpc	r25, r1
     e22:	19 f4       	brne	.+6      	; 0xe2a <__floatunsisf+0x20>
     e24:	82 e0       	ldi	r24, 0x02	; 2
     e26:	89 83       	std	Y+1, r24	; 0x01
     e28:	5e c0       	rjmp	.+188    	; 0xee6 <__floatunsisf+0xdc>
     e2a:	83 e0       	ldi	r24, 0x03	; 3
     e2c:	89 83       	std	Y+1, r24	; 0x01
     e2e:	8e e1       	ldi	r24, 0x1E	; 30
     e30:	c8 2e       	mov	r12, r24
     e32:	d1 2c       	mov	r13, r1
     e34:	dc 82       	std	Y+4, r13	; 0x04
     e36:	cb 82       	std	Y+3, r12	; 0x03
     e38:	ed 82       	std	Y+5, r14	; 0x05
     e3a:	fe 82       	std	Y+6, r15	; 0x06
     e3c:	0f 83       	std	Y+7, r16	; 0x07
     e3e:	18 87       	std	Y+8, r17	; 0x08
     e40:	c8 01       	movw	r24, r16
     e42:	b7 01       	movw	r22, r14
     e44:	56 d0       	rcall	.+172    	; 0xef2 <__clzsi2>
     e46:	fc 01       	movw	r30, r24
     e48:	31 97       	sbiw	r30, 0x01	; 1
     e4a:	f7 ff       	sbrs	r31, 7
     e4c:	3a c0       	rjmp	.+116    	; 0xec2 <__floatunsisf+0xb8>
     e4e:	aa 27       	eor	r26, r26
     e50:	bb 27       	eor	r27, r27
     e52:	ae 1b       	sub	r26, r30
     e54:	bf 0b       	sbc	r27, r31
     e56:	21 e0       	ldi	r18, 0x01	; 1
     e58:	30 e0       	ldi	r19, 0x00	; 0
     e5a:	40 e0       	ldi	r20, 0x00	; 0
     e5c:	50 e0       	ldi	r21, 0x00	; 0
     e5e:	0a 2e       	mov	r0, r26
     e60:	04 c0       	rjmp	.+8      	; 0xe6a <__floatunsisf+0x60>
     e62:	22 0f       	add	r18, r18
     e64:	33 1f       	adc	r19, r19
     e66:	44 1f       	adc	r20, r20
     e68:	55 1f       	adc	r21, r21
     e6a:	0a 94       	dec	r0
     e6c:	d2 f7       	brpl	.-12     	; 0xe62 <__floatunsisf+0x58>
     e6e:	21 50       	subi	r18, 0x01	; 1
     e70:	30 40       	sbci	r19, 0x00	; 0
     e72:	40 40       	sbci	r20, 0x00	; 0
     e74:	50 40       	sbci	r21, 0x00	; 0
     e76:	2e 21       	and	r18, r14
     e78:	3f 21       	and	r19, r15
     e7a:	40 23       	and	r20, r16
     e7c:	51 23       	and	r21, r17
     e7e:	61 e0       	ldi	r22, 0x01	; 1
     e80:	70 e0       	ldi	r23, 0x00	; 0
     e82:	80 e0       	ldi	r24, 0x00	; 0
     e84:	90 e0       	ldi	r25, 0x00	; 0
     e86:	21 15       	cp	r18, r1
     e88:	31 05       	cpc	r19, r1
     e8a:	41 05       	cpc	r20, r1
     e8c:	51 05       	cpc	r21, r1
     e8e:	19 f4       	brne	.+6      	; 0xe96 <__floatunsisf+0x8c>
     e90:	60 e0       	ldi	r22, 0x00	; 0
     e92:	70 e0       	ldi	r23, 0x00	; 0
     e94:	cb 01       	movw	r24, r22
     e96:	04 c0       	rjmp	.+8      	; 0xea0 <__floatunsisf+0x96>
     e98:	16 95       	lsr	r17
     e9a:	07 95       	ror	r16
     e9c:	f7 94       	ror	r15
     e9e:	e7 94       	ror	r14
     ea0:	aa 95       	dec	r26
     ea2:	d2 f7       	brpl	.-12     	; 0xe98 <__floatunsisf+0x8e>
     ea4:	e6 2a       	or	r14, r22
     ea6:	f7 2a       	or	r15, r23
     ea8:	08 2b       	or	r16, r24
     eaa:	19 2b       	or	r17, r25
     eac:	ed 82       	std	Y+5, r14	; 0x05
     eae:	fe 82       	std	Y+6, r15	; 0x06
     eb0:	0f 83       	std	Y+7, r16	; 0x07
     eb2:	18 87       	std	Y+8, r17	; 0x08
     eb4:	8e e1       	ldi	r24, 0x1E	; 30
     eb6:	90 e0       	ldi	r25, 0x00	; 0
     eb8:	8e 1b       	sub	r24, r30
     eba:	9f 0b       	sbc	r25, r31
     ebc:	9c 83       	std	Y+4, r25	; 0x04
     ebe:	8b 83       	std	Y+3, r24	; 0x03
     ec0:	12 c0       	rjmp	.+36     	; 0xee6 <__floatunsisf+0xdc>
     ec2:	30 97       	sbiw	r30, 0x00	; 0
     ec4:	81 f0       	breq	.+32     	; 0xee6 <__floatunsisf+0xdc>
     ec6:	0e 2e       	mov	r0, r30
     ec8:	04 c0       	rjmp	.+8      	; 0xed2 <__floatunsisf+0xc8>
     eca:	ee 0c       	add	r14, r14
     ecc:	ff 1c       	adc	r15, r15
     ece:	00 1f       	adc	r16, r16
     ed0:	11 1f       	adc	r17, r17
     ed2:	0a 94       	dec	r0
     ed4:	d2 f7       	brpl	.-12     	; 0xeca <__floatunsisf+0xc0>
     ed6:	ed 82       	std	Y+5, r14	; 0x05
     ed8:	fe 82       	std	Y+6, r15	; 0x06
     eda:	0f 83       	std	Y+7, r16	; 0x07
     edc:	18 87       	std	Y+8, r17	; 0x08
     ede:	ce 1a       	sub	r12, r30
     ee0:	df 0a       	sbc	r13, r31
     ee2:	dc 82       	std	Y+4, r13	; 0x04
     ee4:	cb 82       	std	Y+3, r12	; 0x03
     ee6:	ce 01       	movw	r24, r28
     ee8:	01 96       	adiw	r24, 0x01	; 1
     eea:	5d d0       	rcall	.+186    	; 0xfa6 <__pack_f>
     eec:	28 96       	adiw	r28, 0x08	; 8
     eee:	e8 e0       	ldi	r30, 0x08	; 8
     ef0:	1b c2       	rjmp	.+1078   	; 0x1328 <__epilogue_restores__+0x14>

00000ef2 <__clzsi2>:
     ef2:	af 92       	push	r10
     ef4:	bf 92       	push	r11
     ef6:	cf 92       	push	r12
     ef8:	df 92       	push	r13
     efa:	ef 92       	push	r14
     efc:	ff 92       	push	r15
     efe:	0f 93       	push	r16
     f00:	1f 93       	push	r17
     f02:	7b 01       	movw	r14, r22
     f04:	8c 01       	movw	r16, r24
     f06:	80 e0       	ldi	r24, 0x00	; 0
     f08:	e8 16       	cp	r14, r24
     f0a:	80 e0       	ldi	r24, 0x00	; 0
     f0c:	f8 06       	cpc	r15, r24
     f0e:	81 e0       	ldi	r24, 0x01	; 1
     f10:	08 07       	cpc	r16, r24
     f12:	80 e0       	ldi	r24, 0x00	; 0
     f14:	18 07       	cpc	r17, r24
     f16:	58 f4       	brcc	.+22     	; 0xf2e <__clzsi2+0x3c>
     f18:	ef ef       	ldi	r30, 0xFF	; 255
     f1a:	ee 16       	cp	r14, r30
     f1c:	f1 04       	cpc	r15, r1
     f1e:	01 05       	cpc	r16, r1
     f20:	11 05       	cpc	r17, r1
     f22:	09 f0       	breq	.+2      	; 0xf26 <__clzsi2+0x34>
     f24:	90 f4       	brcc	.+36     	; 0xf4a <__clzsi2+0x58>
     f26:	80 e0       	ldi	r24, 0x00	; 0
     f28:	90 e0       	ldi	r25, 0x00	; 0
     f2a:	dc 01       	movw	r26, r24
     f2c:	17 c0       	rjmp	.+46     	; 0xf5c <__clzsi2+0x6a>
     f2e:	f0 e0       	ldi	r31, 0x00	; 0
     f30:	ef 16       	cp	r14, r31
     f32:	f0 e0       	ldi	r31, 0x00	; 0
     f34:	ff 06       	cpc	r15, r31
     f36:	f0 e0       	ldi	r31, 0x00	; 0
     f38:	0f 07       	cpc	r16, r31
     f3a:	f1 e0       	ldi	r31, 0x01	; 1
     f3c:	1f 07       	cpc	r17, r31
     f3e:	50 f4       	brcc	.+20     	; 0xf54 <__clzsi2+0x62>
     f40:	80 e1       	ldi	r24, 0x10	; 16
     f42:	90 e0       	ldi	r25, 0x00	; 0
     f44:	a0 e0       	ldi	r26, 0x00	; 0
     f46:	b0 e0       	ldi	r27, 0x00	; 0
     f48:	09 c0       	rjmp	.+18     	; 0xf5c <__clzsi2+0x6a>
     f4a:	88 e0       	ldi	r24, 0x08	; 8
     f4c:	90 e0       	ldi	r25, 0x00	; 0
     f4e:	a0 e0       	ldi	r26, 0x00	; 0
     f50:	b0 e0       	ldi	r27, 0x00	; 0
     f52:	04 c0       	rjmp	.+8      	; 0xf5c <__clzsi2+0x6a>
     f54:	88 e1       	ldi	r24, 0x18	; 24
     f56:	90 e0       	ldi	r25, 0x00	; 0
     f58:	a0 e0       	ldi	r26, 0x00	; 0
     f5a:	b0 e0       	ldi	r27, 0x00	; 0
     f5c:	20 e2       	ldi	r18, 0x20	; 32
     f5e:	30 e0       	ldi	r19, 0x00	; 0
     f60:	40 e0       	ldi	r20, 0x00	; 0
     f62:	50 e0       	ldi	r21, 0x00	; 0
     f64:	28 1b       	sub	r18, r24
     f66:	39 0b       	sbc	r19, r25
     f68:	4a 0b       	sbc	r20, r26
     f6a:	5b 0b       	sbc	r21, r27
     f6c:	57 01       	movw	r10, r14
     f6e:	68 01       	movw	r12, r16
     f70:	04 c0       	rjmp	.+8      	; 0xf7a <__clzsi2+0x88>
     f72:	d6 94       	lsr	r13
     f74:	c7 94       	ror	r12
     f76:	b7 94       	ror	r11
     f78:	a7 94       	ror	r10
     f7a:	8a 95       	dec	r24
     f7c:	d2 f7       	brpl	.-12     	; 0xf72 <__clzsi2+0x80>
     f7e:	d6 01       	movw	r26, r12
     f80:	c5 01       	movw	r24, r10
     f82:	8c 59       	subi	r24, 0x9C	; 156
     f84:	9d 4f       	sbci	r25, 0xFD	; 253
     f86:	fc 01       	movw	r30, r24
     f88:	80 81       	ld	r24, Z
     f8a:	28 1b       	sub	r18, r24
     f8c:	31 09       	sbc	r19, r1
     f8e:	41 09       	sbc	r20, r1
     f90:	51 09       	sbc	r21, r1
     f92:	c9 01       	movw	r24, r18
     f94:	1f 91       	pop	r17
     f96:	0f 91       	pop	r16
     f98:	ff 90       	pop	r15
     f9a:	ef 90       	pop	r14
     f9c:	df 90       	pop	r13
     f9e:	cf 90       	pop	r12
     fa0:	bf 90       	pop	r11
     fa2:	af 90       	pop	r10
     fa4:	08 95       	ret

00000fa6 <__pack_f>:
     fa6:	ef 92       	push	r14
     fa8:	ff 92       	push	r15
     faa:	0f 93       	push	r16
     fac:	1f 93       	push	r17
     fae:	cf 93       	push	r28
     fb0:	df 93       	push	r29
     fb2:	fc 01       	movw	r30, r24
     fb4:	24 81       	ldd	r18, Z+4	; 0x04
     fb6:	35 81       	ldd	r19, Z+5	; 0x05
     fb8:	46 81       	ldd	r20, Z+6	; 0x06
     fba:	57 81       	ldd	r21, Z+7	; 0x07
     fbc:	61 81       	ldd	r22, Z+1	; 0x01
     fbe:	80 81       	ld	r24, Z
     fc0:	82 30       	cpi	r24, 0x02	; 2
     fc2:	20 f4       	brcc	.+8      	; 0xfcc <__pack_f+0x26>
     fc4:	40 61       	ori	r20, 0x10	; 16
     fc6:	ef ef       	ldi	r30, 0xFF	; 255
     fc8:	f0 e0       	ldi	r31, 0x00	; 0
     fca:	a3 c0       	rjmp	.+326    	; 0x1112 <__pack_f+0x16c>
     fcc:	84 30       	cpi	r24, 0x04	; 4
     fce:	09 f4       	brne	.+2      	; 0xfd2 <__pack_f+0x2c>
     fd0:	9b c0       	rjmp	.+310    	; 0x1108 <__pack_f+0x162>
     fd2:	82 30       	cpi	r24, 0x02	; 2
     fd4:	09 f4       	brne	.+2      	; 0xfd8 <__pack_f+0x32>
     fd6:	92 c0       	rjmp	.+292    	; 0x10fc <__pack_f+0x156>
     fd8:	21 15       	cp	r18, r1
     fda:	31 05       	cpc	r19, r1
     fdc:	41 05       	cpc	r20, r1
     fde:	51 05       	cpc	r21, r1
     fe0:	09 f4       	brne	.+2      	; 0xfe4 <__pack_f+0x3e>
     fe2:	8f c0       	rjmp	.+286    	; 0x1102 <__pack_f+0x15c>
     fe4:	02 80       	ldd	r0, Z+2	; 0x02
     fe6:	f3 81       	ldd	r31, Z+3	; 0x03
     fe8:	e0 2d       	mov	r30, r0
     fea:	8f ef       	ldi	r24, 0xFF	; 255
     fec:	e2 38       	cpi	r30, 0x82	; 130
     fee:	f8 07       	cpc	r31, r24
     ff0:	0c f0       	brlt	.+2      	; 0xff4 <__pack_f+0x4e>
     ff2:	5a c0       	rjmp	.+180    	; 0x10a8 <__pack_f+0x102>
     ff4:	c2 e8       	ldi	r28, 0x82	; 130
     ff6:	df ef       	ldi	r29, 0xFF	; 255
     ff8:	ce 1b       	sub	r28, r30
     ffa:	df 0b       	sbc	r29, r31
     ffc:	ca 31       	cpi	r28, 0x1A	; 26
     ffe:	d1 05       	cpc	r29, r1
    1000:	6c f5       	brge	.+90     	; 0x105c <__pack_f+0xb6>
    1002:	79 01       	movw	r14, r18
    1004:	8a 01       	movw	r16, r20
    1006:	0c 2e       	mov	r0, r28
    1008:	04 c0       	rjmp	.+8      	; 0x1012 <__pack_f+0x6c>
    100a:	16 95       	lsr	r17
    100c:	07 95       	ror	r16
    100e:	f7 94       	ror	r15
    1010:	e7 94       	ror	r14
    1012:	0a 94       	dec	r0
    1014:	d2 f7       	brpl	.-12     	; 0x100a <__pack_f+0x64>
    1016:	81 e0       	ldi	r24, 0x01	; 1
    1018:	90 e0       	ldi	r25, 0x00	; 0
    101a:	a0 e0       	ldi	r26, 0x00	; 0
    101c:	b0 e0       	ldi	r27, 0x00	; 0
    101e:	0c 2e       	mov	r0, r28
    1020:	04 c0       	rjmp	.+8      	; 0x102a <__pack_f+0x84>
    1022:	88 0f       	add	r24, r24
    1024:	99 1f       	adc	r25, r25
    1026:	aa 1f       	adc	r26, r26
    1028:	bb 1f       	adc	r27, r27
    102a:	0a 94       	dec	r0
    102c:	d2 f7       	brpl	.-12     	; 0x1022 <__pack_f+0x7c>
    102e:	01 97       	sbiw	r24, 0x01	; 1
    1030:	a1 09       	sbc	r26, r1
    1032:	b1 09       	sbc	r27, r1
    1034:	82 23       	and	r24, r18
    1036:	93 23       	and	r25, r19
    1038:	a4 23       	and	r26, r20
    103a:	b5 23       	and	r27, r21
    103c:	21 e0       	ldi	r18, 0x01	; 1
    103e:	30 e0       	ldi	r19, 0x00	; 0
    1040:	40 e0       	ldi	r20, 0x00	; 0
    1042:	50 e0       	ldi	r21, 0x00	; 0
    1044:	00 97       	sbiw	r24, 0x00	; 0
    1046:	a1 05       	cpc	r26, r1
    1048:	b1 05       	cpc	r27, r1
    104a:	19 f4       	brne	.+6      	; 0x1052 <__pack_f+0xac>
    104c:	20 e0       	ldi	r18, 0x00	; 0
    104e:	30 e0       	ldi	r19, 0x00	; 0
    1050:	a9 01       	movw	r20, r18
    1052:	2e 29       	or	r18, r14
    1054:	3f 29       	or	r19, r15
    1056:	40 2b       	or	r20, r16
    1058:	51 2b       	or	r21, r17
    105a:	03 c0       	rjmp	.+6      	; 0x1062 <__pack_f+0xbc>
    105c:	20 e0       	ldi	r18, 0x00	; 0
    105e:	30 e0       	ldi	r19, 0x00	; 0
    1060:	a9 01       	movw	r20, r18
    1062:	da 01       	movw	r26, r20
    1064:	c9 01       	movw	r24, r18
    1066:	8f 77       	andi	r24, 0x7F	; 127
    1068:	90 70       	andi	r25, 0x00	; 0
    106a:	a0 70       	andi	r26, 0x00	; 0
    106c:	b0 70       	andi	r27, 0x00	; 0
    106e:	80 34       	cpi	r24, 0x40	; 64
    1070:	91 05       	cpc	r25, r1
    1072:	a1 05       	cpc	r26, r1
    1074:	b1 05       	cpc	r27, r1
    1076:	39 f4       	brne	.+14     	; 0x1086 <__pack_f+0xe0>
    1078:	27 ff       	sbrs	r18, 7
    107a:	09 c0       	rjmp	.+18     	; 0x108e <__pack_f+0xe8>
    107c:	20 5c       	subi	r18, 0xC0	; 192
    107e:	3f 4f       	sbci	r19, 0xFF	; 255
    1080:	4f 4f       	sbci	r20, 0xFF	; 255
    1082:	5f 4f       	sbci	r21, 0xFF	; 255
    1084:	04 c0       	rjmp	.+8      	; 0x108e <__pack_f+0xe8>
    1086:	21 5c       	subi	r18, 0xC1	; 193
    1088:	3f 4f       	sbci	r19, 0xFF	; 255
    108a:	4f 4f       	sbci	r20, 0xFF	; 255
    108c:	5f 4f       	sbci	r21, 0xFF	; 255
    108e:	e1 e0       	ldi	r30, 0x01	; 1
    1090:	f0 e0       	ldi	r31, 0x00	; 0
    1092:	20 30       	cpi	r18, 0x00	; 0
    1094:	80 e0       	ldi	r24, 0x00	; 0
    1096:	38 07       	cpc	r19, r24
    1098:	80 e0       	ldi	r24, 0x00	; 0
    109a:	48 07       	cpc	r20, r24
    109c:	80 e4       	ldi	r24, 0x40	; 64
    109e:	58 07       	cpc	r21, r24
    10a0:	28 f5       	brcc	.+74     	; 0x10ec <__pack_f+0x146>
    10a2:	e0 e0       	ldi	r30, 0x00	; 0
    10a4:	f0 e0       	ldi	r31, 0x00	; 0
    10a6:	22 c0       	rjmp	.+68     	; 0x10ec <__pack_f+0x146>
    10a8:	e0 38       	cpi	r30, 0x80	; 128
    10aa:	f1 05       	cpc	r31, r1
    10ac:	6c f5       	brge	.+90     	; 0x1108 <__pack_f+0x162>
    10ae:	e1 58       	subi	r30, 0x81	; 129
    10b0:	ff 4f       	sbci	r31, 0xFF	; 255
    10b2:	da 01       	movw	r26, r20
    10b4:	c9 01       	movw	r24, r18
    10b6:	8f 77       	andi	r24, 0x7F	; 127
    10b8:	90 70       	andi	r25, 0x00	; 0
    10ba:	a0 70       	andi	r26, 0x00	; 0
    10bc:	b0 70       	andi	r27, 0x00	; 0
    10be:	80 34       	cpi	r24, 0x40	; 64
    10c0:	91 05       	cpc	r25, r1
    10c2:	a1 05       	cpc	r26, r1
    10c4:	b1 05       	cpc	r27, r1
    10c6:	39 f4       	brne	.+14     	; 0x10d6 <__pack_f+0x130>
    10c8:	27 ff       	sbrs	r18, 7
    10ca:	09 c0       	rjmp	.+18     	; 0x10de <__pack_f+0x138>
    10cc:	20 5c       	subi	r18, 0xC0	; 192
    10ce:	3f 4f       	sbci	r19, 0xFF	; 255
    10d0:	4f 4f       	sbci	r20, 0xFF	; 255
    10d2:	5f 4f       	sbci	r21, 0xFF	; 255
    10d4:	04 c0       	rjmp	.+8      	; 0x10de <__pack_f+0x138>
    10d6:	21 5c       	subi	r18, 0xC1	; 193
    10d8:	3f 4f       	sbci	r19, 0xFF	; 255
    10da:	4f 4f       	sbci	r20, 0xFF	; 255
    10dc:	5f 4f       	sbci	r21, 0xFF	; 255
    10de:	57 ff       	sbrs	r21, 7
    10e0:	05 c0       	rjmp	.+10     	; 0x10ec <__pack_f+0x146>
    10e2:	56 95       	lsr	r21
    10e4:	47 95       	ror	r20
    10e6:	37 95       	ror	r19
    10e8:	27 95       	ror	r18
    10ea:	31 96       	adiw	r30, 0x01	; 1
    10ec:	87 e0       	ldi	r24, 0x07	; 7
    10ee:	56 95       	lsr	r21
    10f0:	47 95       	ror	r20
    10f2:	37 95       	ror	r19
    10f4:	27 95       	ror	r18
    10f6:	8a 95       	dec	r24
    10f8:	d1 f7       	brne	.-12     	; 0x10ee <__pack_f+0x148>
    10fa:	0b c0       	rjmp	.+22     	; 0x1112 <__pack_f+0x16c>
    10fc:	e0 e0       	ldi	r30, 0x00	; 0
    10fe:	f0 e0       	ldi	r31, 0x00	; 0
    1100:	05 c0       	rjmp	.+10     	; 0x110c <__pack_f+0x166>
    1102:	e0 e0       	ldi	r30, 0x00	; 0
    1104:	f0 e0       	ldi	r31, 0x00	; 0
    1106:	05 c0       	rjmp	.+10     	; 0x1112 <__pack_f+0x16c>
    1108:	ef ef       	ldi	r30, 0xFF	; 255
    110a:	f0 e0       	ldi	r31, 0x00	; 0
    110c:	20 e0       	ldi	r18, 0x00	; 0
    110e:	30 e0       	ldi	r19, 0x00	; 0
    1110:	a9 01       	movw	r20, r18
    1112:	8e 2f       	mov	r24, r30
    1114:	87 95       	ror	r24
    1116:	88 27       	eor	r24, r24
    1118:	87 95       	ror	r24
    111a:	94 2f       	mov	r25, r20
    111c:	9f 77       	andi	r25, 0x7F	; 127
    111e:	67 95       	ror	r22
    1120:	66 27       	eor	r22, r22
    1122:	67 95       	ror	r22
    1124:	e6 95       	lsr	r30
    1126:	e2 2e       	mov	r14, r18
    1128:	a9 2f       	mov	r26, r25
    112a:	a8 2b       	or	r26, r24
    112c:	fe 2f       	mov	r31, r30
    112e:	f6 2b       	or	r31, r22
    1130:	62 2f       	mov	r22, r18
    1132:	73 2f       	mov	r23, r19
    1134:	8a 2f       	mov	r24, r26
    1136:	9f 2f       	mov	r25, r31
    1138:	cd b7       	in	r28, 0x3d	; 61
    113a:	de b7       	in	r29, 0x3e	; 62
    113c:	e6 e0       	ldi	r30, 0x06	; 6
    113e:	f6 c0       	rjmp	.+492    	; 0x132c <__epilogue_restores__+0x18>

00001140 <__unpack_f>:
    1140:	dc 01       	movw	r26, r24
    1142:	fb 01       	movw	r30, r22
    1144:	2c 91       	ld	r18, X
    1146:	11 96       	adiw	r26, 0x01	; 1
    1148:	3c 91       	ld	r19, X
    114a:	11 97       	sbiw	r26, 0x01	; 1
    114c:	12 96       	adiw	r26, 0x02	; 2
    114e:	8c 91       	ld	r24, X
    1150:	12 97       	sbiw	r26, 0x02	; 2
    1152:	48 2f       	mov	r20, r24
    1154:	4f 77       	andi	r20, 0x7F	; 127
    1156:	50 e0       	ldi	r21, 0x00	; 0
    1158:	98 2f       	mov	r25, r24
    115a:	99 1f       	adc	r25, r25
    115c:	99 27       	eor	r25, r25
    115e:	99 1f       	adc	r25, r25
    1160:	13 96       	adiw	r26, 0x03	; 3
    1162:	6c 91       	ld	r22, X
    1164:	13 97       	sbiw	r26, 0x03	; 3
    1166:	86 2f       	mov	r24, r22
    1168:	88 0f       	add	r24, r24
    116a:	89 2b       	or	r24, r25
    116c:	90 e0       	ldi	r25, 0x00	; 0
    116e:	66 1f       	adc	r22, r22
    1170:	66 27       	eor	r22, r22
    1172:	66 1f       	adc	r22, r22
    1174:	61 83       	std	Z+1, r22	; 0x01
    1176:	00 97       	sbiw	r24, 0x00	; 0
    1178:	39 f5       	brne	.+78     	; 0x11c8 <__unpack_f+0x88>
    117a:	21 15       	cp	r18, r1
    117c:	31 05       	cpc	r19, r1
    117e:	41 05       	cpc	r20, r1
    1180:	51 05       	cpc	r21, r1
    1182:	11 f4       	brne	.+4      	; 0x1188 <__unpack_f+0x48>
    1184:	82 e0       	ldi	r24, 0x02	; 2
    1186:	29 c0       	rjmp	.+82     	; 0x11da <__unpack_f+0x9a>
    1188:	82 e8       	ldi	r24, 0x82	; 130
    118a:	9f ef       	ldi	r25, 0xFF	; 255
    118c:	93 83       	std	Z+3, r25	; 0x03
    118e:	82 83       	std	Z+2, r24	; 0x02
    1190:	67 e0       	ldi	r22, 0x07	; 7
    1192:	22 0f       	add	r18, r18
    1194:	33 1f       	adc	r19, r19
    1196:	44 1f       	adc	r20, r20
    1198:	55 1f       	adc	r21, r21
    119a:	6a 95       	dec	r22
    119c:	d1 f7       	brne	.-12     	; 0x1192 <__unpack_f+0x52>
    119e:	83 e0       	ldi	r24, 0x03	; 3
    11a0:	80 83       	st	Z, r24
    11a2:	09 c0       	rjmp	.+18     	; 0x11b6 <__unpack_f+0x76>
    11a4:	22 0f       	add	r18, r18
    11a6:	33 1f       	adc	r19, r19
    11a8:	44 1f       	adc	r20, r20
    11aa:	55 1f       	adc	r21, r21
    11ac:	82 81       	ldd	r24, Z+2	; 0x02
    11ae:	93 81       	ldd	r25, Z+3	; 0x03
    11b0:	01 97       	sbiw	r24, 0x01	; 1
    11b2:	93 83       	std	Z+3, r25	; 0x03
    11b4:	82 83       	std	Z+2, r24	; 0x02
    11b6:	20 30       	cpi	r18, 0x00	; 0
    11b8:	80 e0       	ldi	r24, 0x00	; 0
    11ba:	38 07       	cpc	r19, r24
    11bc:	80 e0       	ldi	r24, 0x00	; 0
    11be:	48 07       	cpc	r20, r24
    11c0:	80 e4       	ldi	r24, 0x40	; 64
    11c2:	58 07       	cpc	r21, r24
    11c4:	78 f3       	brcs	.-34     	; 0x11a4 <__unpack_f+0x64>
    11c6:	20 c0       	rjmp	.+64     	; 0x1208 <__unpack_f+0xc8>
    11c8:	8f 3f       	cpi	r24, 0xFF	; 255
    11ca:	91 05       	cpc	r25, r1
    11cc:	79 f4       	brne	.+30     	; 0x11ec <__unpack_f+0xac>
    11ce:	21 15       	cp	r18, r1
    11d0:	31 05       	cpc	r19, r1
    11d2:	41 05       	cpc	r20, r1
    11d4:	51 05       	cpc	r21, r1
    11d6:	19 f4       	brne	.+6      	; 0x11de <__unpack_f+0x9e>
    11d8:	84 e0       	ldi	r24, 0x04	; 4
    11da:	80 83       	st	Z, r24
    11dc:	08 95       	ret
    11de:	44 ff       	sbrs	r20, 4
    11e0:	03 c0       	rjmp	.+6      	; 0x11e8 <__unpack_f+0xa8>
    11e2:	81 e0       	ldi	r24, 0x01	; 1
    11e4:	80 83       	st	Z, r24
    11e6:	10 c0       	rjmp	.+32     	; 0x1208 <__unpack_f+0xc8>
    11e8:	10 82       	st	Z, r1
    11ea:	0e c0       	rjmp	.+28     	; 0x1208 <__unpack_f+0xc8>
    11ec:	8f 57       	subi	r24, 0x7F	; 127
    11ee:	90 40       	sbci	r25, 0x00	; 0
    11f0:	93 83       	std	Z+3, r25	; 0x03
    11f2:	82 83       	std	Z+2, r24	; 0x02
    11f4:	83 e0       	ldi	r24, 0x03	; 3
    11f6:	80 83       	st	Z, r24
    11f8:	87 e0       	ldi	r24, 0x07	; 7
    11fa:	22 0f       	add	r18, r18
    11fc:	33 1f       	adc	r19, r19
    11fe:	44 1f       	adc	r20, r20
    1200:	55 1f       	adc	r21, r21
    1202:	8a 95       	dec	r24
    1204:	d1 f7       	brne	.-12     	; 0x11fa <__unpack_f+0xba>
    1206:	50 64       	ori	r21, 0x40	; 64
    1208:	24 83       	std	Z+4, r18	; 0x04
    120a:	35 83       	std	Z+5, r19	; 0x05
    120c:	46 83       	std	Z+6, r20	; 0x06
    120e:	57 83       	std	Z+7, r21	; 0x07
    1210:	08 95       	ret

00001212 <__fpcmp_parts_f>:
    1212:	fc 01       	movw	r30, r24
    1214:	db 01       	movw	r26, r22
    1216:	90 81       	ld	r25, Z
    1218:	92 30       	cpi	r25, 0x02	; 2
    121a:	08 f4       	brcc	.+2      	; 0x121e <__fpcmp_parts_f+0xc>
    121c:	49 c0       	rjmp	.+146    	; 0x12b0 <__fpcmp_parts_f+0x9e>
    121e:	8c 91       	ld	r24, X
    1220:	82 30       	cpi	r24, 0x02	; 2
    1222:	08 f4       	brcc	.+2      	; 0x1226 <__fpcmp_parts_f+0x14>
    1224:	45 c0       	rjmp	.+138    	; 0x12b0 <__fpcmp_parts_f+0x9e>
    1226:	94 30       	cpi	r25, 0x04	; 4
    1228:	51 f4       	brne	.+20     	; 0x123e <__fpcmp_parts_f+0x2c>
    122a:	61 81       	ldd	r22, Z+1	; 0x01
    122c:	84 30       	cpi	r24, 0x04	; 4
    122e:	b1 f5       	brne	.+108    	; 0x129c <__fpcmp_parts_f+0x8a>
    1230:	11 96       	adiw	r26, 0x01	; 1
    1232:	2c 91       	ld	r18, X
    1234:	11 97       	sbiw	r26, 0x01	; 1
    1236:	30 e0       	ldi	r19, 0x00	; 0
    1238:	26 1b       	sub	r18, r22
    123a:	31 09       	sbc	r19, r1
    123c:	41 c0       	rjmp	.+130    	; 0x12c0 <__fpcmp_parts_f+0xae>
    123e:	84 30       	cpi	r24, 0x04	; 4
    1240:	21 f0       	breq	.+8      	; 0x124a <__fpcmp_parts_f+0x38>
    1242:	92 30       	cpi	r25, 0x02	; 2
    1244:	41 f4       	brne	.+16     	; 0x1256 <__fpcmp_parts_f+0x44>
    1246:	82 30       	cpi	r24, 0x02	; 2
    1248:	b1 f1       	breq	.+108    	; 0x12b6 <__fpcmp_parts_f+0xa4>
    124a:	11 96       	adiw	r26, 0x01	; 1
    124c:	8c 91       	ld	r24, X
    124e:	11 97       	sbiw	r26, 0x01	; 1
    1250:	88 23       	and	r24, r24
    1252:	a1 f1       	breq	.+104    	; 0x12bc <__fpcmp_parts_f+0xaa>
    1254:	2d c0       	rjmp	.+90     	; 0x12b0 <__fpcmp_parts_f+0x9e>
    1256:	61 81       	ldd	r22, Z+1	; 0x01
    1258:	82 30       	cpi	r24, 0x02	; 2
    125a:	01 f1       	breq	.+64     	; 0x129c <__fpcmp_parts_f+0x8a>
    125c:	11 96       	adiw	r26, 0x01	; 1
    125e:	8c 91       	ld	r24, X
    1260:	11 97       	sbiw	r26, 0x01	; 1
    1262:	68 17       	cp	r22, r24
    1264:	d9 f4       	brne	.+54     	; 0x129c <__fpcmp_parts_f+0x8a>
    1266:	22 81       	ldd	r18, Z+2	; 0x02
    1268:	33 81       	ldd	r19, Z+3	; 0x03
    126a:	12 96       	adiw	r26, 0x02	; 2
    126c:	8d 91       	ld	r24, X+
    126e:	9c 91       	ld	r25, X
    1270:	13 97       	sbiw	r26, 0x03	; 3
    1272:	82 17       	cp	r24, r18
    1274:	93 07       	cpc	r25, r19
    1276:	94 f0       	brlt	.+36     	; 0x129c <__fpcmp_parts_f+0x8a>
    1278:	28 17       	cp	r18, r24
    127a:	39 07       	cpc	r19, r25
    127c:	bc f0       	brlt	.+46     	; 0x12ac <__fpcmp_parts_f+0x9a>
    127e:	24 81       	ldd	r18, Z+4	; 0x04
    1280:	35 81       	ldd	r19, Z+5	; 0x05
    1282:	46 81       	ldd	r20, Z+6	; 0x06
    1284:	57 81       	ldd	r21, Z+7	; 0x07
    1286:	14 96       	adiw	r26, 0x04	; 4
    1288:	8d 91       	ld	r24, X+
    128a:	9d 91       	ld	r25, X+
    128c:	0d 90       	ld	r0, X+
    128e:	bc 91       	ld	r27, X
    1290:	a0 2d       	mov	r26, r0
    1292:	82 17       	cp	r24, r18
    1294:	93 07       	cpc	r25, r19
    1296:	a4 07       	cpc	r26, r20
    1298:	b5 07       	cpc	r27, r21
    129a:	18 f4       	brcc	.+6      	; 0x12a2 <__fpcmp_parts_f+0x90>
    129c:	66 23       	and	r22, r22
    129e:	41 f0       	breq	.+16     	; 0x12b0 <__fpcmp_parts_f+0x9e>
    12a0:	0d c0       	rjmp	.+26     	; 0x12bc <__fpcmp_parts_f+0xaa>
    12a2:	28 17       	cp	r18, r24
    12a4:	39 07       	cpc	r19, r25
    12a6:	4a 07       	cpc	r20, r26
    12a8:	5b 07       	cpc	r21, r27
    12aa:	28 f4       	brcc	.+10     	; 0x12b6 <__fpcmp_parts_f+0xa4>
    12ac:	66 23       	and	r22, r22
    12ae:	31 f0       	breq	.+12     	; 0x12bc <__fpcmp_parts_f+0xaa>
    12b0:	21 e0       	ldi	r18, 0x01	; 1
    12b2:	30 e0       	ldi	r19, 0x00	; 0
    12b4:	05 c0       	rjmp	.+10     	; 0x12c0 <__fpcmp_parts_f+0xae>
    12b6:	20 e0       	ldi	r18, 0x00	; 0
    12b8:	30 e0       	ldi	r19, 0x00	; 0
    12ba:	02 c0       	rjmp	.+4      	; 0x12c0 <__fpcmp_parts_f+0xae>
    12bc:	2f ef       	ldi	r18, 0xFF	; 255
    12be:	3f ef       	ldi	r19, 0xFF	; 255
    12c0:	c9 01       	movw	r24, r18
    12c2:	08 95       	ret

000012c4 <__udivmodqi4>:
    12c4:	99 1b       	sub	r25, r25
    12c6:	79 e0       	ldi	r23, 0x09	; 9
    12c8:	04 c0       	rjmp	.+8      	; 0x12d2 <__udivmodqi4_ep>

000012ca <__udivmodqi4_loop>:
    12ca:	99 1f       	adc	r25, r25
    12cc:	96 17       	cp	r25, r22
    12ce:	08 f0       	brcs	.+2      	; 0x12d2 <__udivmodqi4_ep>
    12d0:	96 1b       	sub	r25, r22

000012d2 <__udivmodqi4_ep>:
    12d2:	88 1f       	adc	r24, r24
    12d4:	7a 95       	dec	r23
    12d6:	c9 f7       	brne	.-14     	; 0x12ca <__udivmodqi4_loop>
    12d8:	80 95       	com	r24
    12da:	08 95       	ret

000012dc <__prologue_saves__>:
    12dc:	2f 92       	push	r2
    12de:	3f 92       	push	r3
    12e0:	4f 92       	push	r4
    12e2:	5f 92       	push	r5
    12e4:	6f 92       	push	r6
    12e6:	7f 92       	push	r7
    12e8:	8f 92       	push	r8
    12ea:	9f 92       	push	r9
    12ec:	af 92       	push	r10
    12ee:	bf 92       	push	r11
    12f0:	cf 92       	push	r12
    12f2:	df 92       	push	r13
    12f4:	ef 92       	push	r14
    12f6:	ff 92       	push	r15
    12f8:	0f 93       	push	r16
    12fa:	1f 93       	push	r17
    12fc:	cf 93       	push	r28
    12fe:	df 93       	push	r29
    1300:	cd b7       	in	r28, 0x3d	; 61
    1302:	de b7       	in	r29, 0x3e	; 62
    1304:	ca 1b       	sub	r28, r26
    1306:	db 0b       	sbc	r29, r27
    1308:	0f b6       	in	r0, 0x3f	; 63
    130a:	f8 94       	cli
    130c:	de bf       	out	0x3e, r29	; 62
    130e:	0f be       	out	0x3f, r0	; 63
    1310:	cd bf       	out	0x3d, r28	; 61
    1312:	09 94       	ijmp

00001314 <__epilogue_restores__>:
    1314:	2a 88       	ldd	r2, Y+18	; 0x12
    1316:	39 88       	ldd	r3, Y+17	; 0x11
    1318:	48 88       	ldd	r4, Y+16	; 0x10
    131a:	5f 84       	ldd	r5, Y+15	; 0x0f
    131c:	6e 84       	ldd	r6, Y+14	; 0x0e
    131e:	7d 84       	ldd	r7, Y+13	; 0x0d
    1320:	8c 84       	ldd	r8, Y+12	; 0x0c
    1322:	9b 84       	ldd	r9, Y+11	; 0x0b
    1324:	aa 84       	ldd	r10, Y+10	; 0x0a
    1326:	b9 84       	ldd	r11, Y+9	; 0x09
    1328:	c8 84       	ldd	r12, Y+8	; 0x08
    132a:	df 80       	ldd	r13, Y+7	; 0x07
    132c:	ee 80       	ldd	r14, Y+6	; 0x06
    132e:	fd 80       	ldd	r15, Y+5	; 0x05
    1330:	0c 81       	ldd	r16, Y+4	; 0x04
    1332:	1b 81       	ldd	r17, Y+3	; 0x03
    1334:	aa 81       	ldd	r26, Y+2	; 0x02
    1336:	b9 81       	ldd	r27, Y+1	; 0x01
    1338:	ce 0f       	add	r28, r30
    133a:	d1 1d       	adc	r29, r1
    133c:	0f b6       	in	r0, 0x3f	; 63
    133e:	f8 94       	cli
    1340:	de bf       	out	0x3e, r29	; 62
    1342:	0f be       	out	0x3f, r0	; 63
    1344:	cd bf       	out	0x3d, r28	; 61
    1346:	ed 01       	movw	r28, r26
    1348:	08 95       	ret

0000134a <snprintf>:
    134a:	ae e0       	ldi	r26, 0x0E	; 14
    134c:	b0 e0       	ldi	r27, 0x00	; 0
    134e:	ea ea       	ldi	r30, 0xAA	; 170
    1350:	f9 e0       	ldi	r31, 0x09	; 9
    1352:	d2 cf       	rjmp	.-92     	; 0x12f8 <__prologue_saves__+0x1c>
    1354:	0d 89       	ldd	r16, Y+21	; 0x15
    1356:	1e 89       	ldd	r17, Y+22	; 0x16
    1358:	8f 89       	ldd	r24, Y+23	; 0x17
    135a:	98 8d       	ldd	r25, Y+24	; 0x18
    135c:	26 e0       	ldi	r18, 0x06	; 6
    135e:	2c 83       	std	Y+4, r18	; 0x04
    1360:	1a 83       	std	Y+2, r17	; 0x02
    1362:	09 83       	std	Y+1, r16	; 0x01
    1364:	97 ff       	sbrs	r25, 7
    1366:	02 c0       	rjmp	.+4      	; 0x136c <snprintf+0x22>
    1368:	80 e0       	ldi	r24, 0x00	; 0
    136a:	90 e8       	ldi	r25, 0x80	; 128
    136c:	01 97       	sbiw	r24, 0x01	; 1
    136e:	9e 83       	std	Y+6, r25	; 0x06
    1370:	8d 83       	std	Y+5, r24	; 0x05
    1372:	9e 01       	movw	r18, r28
    1374:	25 5e       	subi	r18, 0xE5	; 229
    1376:	3f 4f       	sbci	r19, 0xFF	; 255
    1378:	ce 01       	movw	r24, r28
    137a:	01 96       	adiw	r24, 0x01	; 1
    137c:	69 8d       	ldd	r22, Y+25	; 0x19
    137e:	7a 8d       	ldd	r23, Y+26	; 0x1a
    1380:	a9 01       	movw	r20, r18
    1382:	11 d0       	rcall	.+34     	; 0x13a6 <vfprintf>
    1384:	4d 81       	ldd	r20, Y+5	; 0x05
    1386:	5e 81       	ldd	r21, Y+6	; 0x06
    1388:	57 fd       	sbrc	r21, 7
    138a:	0a c0       	rjmp	.+20     	; 0x13a0 <snprintf+0x56>
    138c:	2f 81       	ldd	r18, Y+7	; 0x07
    138e:	38 85       	ldd	r19, Y+8	; 0x08
    1390:	42 17       	cp	r20, r18
    1392:	53 07       	cpc	r21, r19
    1394:	0c f4       	brge	.+2      	; 0x1398 <snprintf+0x4e>
    1396:	9a 01       	movw	r18, r20
    1398:	02 0f       	add	r16, r18
    139a:	13 1f       	adc	r17, r19
    139c:	f8 01       	movw	r30, r16
    139e:	10 82       	st	Z, r1
    13a0:	2e 96       	adiw	r28, 0x0e	; 14
    13a2:	e4 e0       	ldi	r30, 0x04	; 4
    13a4:	c5 cf       	rjmp	.-118    	; 0x1330 <__epilogue_restores__+0x1c>

000013a6 <vfprintf>:
    13a6:	ac e0       	ldi	r26, 0x0C	; 12
    13a8:	b0 e0       	ldi	r27, 0x00	; 0
    13aa:	e8 ed       	ldi	r30, 0xD8	; 216
    13ac:	f9 e0       	ldi	r31, 0x09	; 9
    13ae:	96 cf       	rjmp	.-212    	; 0x12dc <__prologue_saves__>
    13b0:	6c 01       	movw	r12, r24
    13b2:	1b 01       	movw	r2, r22
    13b4:	8a 01       	movw	r16, r20
    13b6:	fc 01       	movw	r30, r24
    13b8:	17 82       	std	Z+7, r1	; 0x07
    13ba:	16 82       	std	Z+6, r1	; 0x06
    13bc:	83 81       	ldd	r24, Z+3	; 0x03
    13be:	81 ff       	sbrs	r24, 1
    13c0:	c4 c1       	rjmp	.+904    	; 0x174a <vfprintf+0x3a4>
    13c2:	2e 01       	movw	r4, r28
    13c4:	08 94       	sec
    13c6:	41 1c       	adc	r4, r1
    13c8:	51 1c       	adc	r5, r1
    13ca:	f6 01       	movw	r30, r12
    13cc:	93 81       	ldd	r25, Z+3	; 0x03
    13ce:	f1 01       	movw	r30, r2
    13d0:	93 fd       	sbrc	r25, 3
    13d2:	85 91       	lpm	r24, Z+
    13d4:	93 ff       	sbrs	r25, 3
    13d6:	81 91       	ld	r24, Z+
    13d8:	1f 01       	movw	r2, r30
    13da:	88 23       	and	r24, r24
    13dc:	09 f4       	brne	.+2      	; 0x13e0 <vfprintf+0x3a>
    13de:	b1 c1       	rjmp	.+866    	; 0x1742 <vfprintf+0x39c>
    13e0:	85 32       	cpi	r24, 0x25	; 37
    13e2:	39 f4       	brne	.+14     	; 0x13f2 <vfprintf+0x4c>
    13e4:	93 fd       	sbrc	r25, 3
    13e6:	85 91       	lpm	r24, Z+
    13e8:	93 ff       	sbrs	r25, 3
    13ea:	81 91       	ld	r24, Z+
    13ec:	1f 01       	movw	r2, r30
    13ee:	85 32       	cpi	r24, 0x25	; 37
    13f0:	21 f4       	brne	.+8      	; 0x13fa <vfprintf+0x54>
    13f2:	90 e0       	ldi	r25, 0x00	; 0
    13f4:	b6 01       	movw	r22, r12
    13f6:	c5 d1       	rcall	.+906    	; 0x1782 <fputc>
    13f8:	e8 cf       	rjmp	.-48     	; 0x13ca <vfprintf+0x24>
    13fa:	ee 24       	eor	r14, r14
    13fc:	ff 24       	eor	r15, r15
    13fe:	20 e0       	ldi	r18, 0x00	; 0
    1400:	20 32       	cpi	r18, 0x20	; 32
    1402:	b0 f4       	brcc	.+44     	; 0x1430 <vfprintf+0x8a>
    1404:	8b 32       	cpi	r24, 0x2B	; 43
    1406:	69 f0       	breq	.+26     	; 0x1422 <vfprintf+0x7c>
    1408:	8c 32       	cpi	r24, 0x2C	; 44
    140a:	28 f4       	brcc	.+10     	; 0x1416 <vfprintf+0x70>
    140c:	80 32       	cpi	r24, 0x20	; 32
    140e:	51 f0       	breq	.+20     	; 0x1424 <vfprintf+0x7e>
    1410:	83 32       	cpi	r24, 0x23	; 35
    1412:	71 f4       	brne	.+28     	; 0x1430 <vfprintf+0x8a>
    1414:	0b c0       	rjmp	.+22     	; 0x142c <vfprintf+0x86>
    1416:	8d 32       	cpi	r24, 0x2D	; 45
    1418:	39 f0       	breq	.+14     	; 0x1428 <vfprintf+0x82>
    141a:	80 33       	cpi	r24, 0x30	; 48
    141c:	49 f4       	brne	.+18     	; 0x1430 <vfprintf+0x8a>
    141e:	21 60       	ori	r18, 0x01	; 1
    1420:	2c c0       	rjmp	.+88     	; 0x147a <vfprintf+0xd4>
    1422:	22 60       	ori	r18, 0x02	; 2
    1424:	24 60       	ori	r18, 0x04	; 4
    1426:	29 c0       	rjmp	.+82     	; 0x147a <vfprintf+0xd4>
    1428:	28 60       	ori	r18, 0x08	; 8
    142a:	27 c0       	rjmp	.+78     	; 0x147a <vfprintf+0xd4>
    142c:	20 61       	ori	r18, 0x10	; 16
    142e:	25 c0       	rjmp	.+74     	; 0x147a <vfprintf+0xd4>
    1430:	27 fd       	sbrc	r18, 7
    1432:	2c c0       	rjmp	.+88     	; 0x148c <vfprintf+0xe6>
    1434:	38 2f       	mov	r19, r24
    1436:	30 53       	subi	r19, 0x30	; 48
    1438:	3a 30       	cpi	r19, 0x0A	; 10
    143a:	98 f4       	brcc	.+38     	; 0x1462 <vfprintf+0xbc>
    143c:	26 ff       	sbrs	r18, 6
    143e:	08 c0       	rjmp	.+16     	; 0x1450 <vfprintf+0xaa>
    1440:	8e 2d       	mov	r24, r14
    1442:	88 0f       	add	r24, r24
    1444:	e8 2e       	mov	r14, r24
    1446:	ee 0c       	add	r14, r14
    1448:	ee 0c       	add	r14, r14
    144a:	e8 0e       	add	r14, r24
    144c:	e3 0e       	add	r14, r19
    144e:	15 c0       	rjmp	.+42     	; 0x147a <vfprintf+0xd4>
    1450:	8f 2d       	mov	r24, r15
    1452:	88 0f       	add	r24, r24
    1454:	f8 2e       	mov	r15, r24
    1456:	ff 0c       	add	r15, r15
    1458:	ff 0c       	add	r15, r15
    145a:	f8 0e       	add	r15, r24
    145c:	f3 0e       	add	r15, r19
    145e:	20 62       	ori	r18, 0x20	; 32
    1460:	0c c0       	rjmp	.+24     	; 0x147a <vfprintf+0xd4>
    1462:	8e 32       	cpi	r24, 0x2E	; 46
    1464:	21 f4       	brne	.+8      	; 0x146e <vfprintf+0xc8>
    1466:	26 fd       	sbrc	r18, 6
    1468:	6c c1       	rjmp	.+728    	; 0x1742 <vfprintf+0x39c>
    146a:	20 64       	ori	r18, 0x40	; 64
    146c:	06 c0       	rjmp	.+12     	; 0x147a <vfprintf+0xd4>
    146e:	8c 36       	cpi	r24, 0x6C	; 108
    1470:	11 f4       	brne	.+4      	; 0x1476 <vfprintf+0xd0>
    1472:	20 68       	ori	r18, 0x80	; 128
    1474:	02 c0       	rjmp	.+4      	; 0x147a <vfprintf+0xd4>
    1476:	88 36       	cpi	r24, 0x68	; 104
    1478:	49 f4       	brne	.+18     	; 0x148c <vfprintf+0xe6>
    147a:	f1 01       	movw	r30, r2
    147c:	93 fd       	sbrc	r25, 3
    147e:	85 91       	lpm	r24, Z+
    1480:	93 ff       	sbrs	r25, 3
    1482:	81 91       	ld	r24, Z+
    1484:	1f 01       	movw	r2, r30
    1486:	88 23       	and	r24, r24
    1488:	09 f0       	breq	.+2      	; 0x148c <vfprintf+0xe6>
    148a:	ba cf       	rjmp	.-140    	; 0x1400 <vfprintf+0x5a>
    148c:	98 2f       	mov	r25, r24
    148e:	95 54       	subi	r25, 0x45	; 69
    1490:	93 30       	cpi	r25, 0x03	; 3
    1492:	18 f0       	brcs	.+6      	; 0x149a <vfprintf+0xf4>
    1494:	90 52       	subi	r25, 0x20	; 32
    1496:	93 30       	cpi	r25, 0x03	; 3
    1498:	28 f4       	brcc	.+10     	; 0x14a4 <vfprintf+0xfe>
    149a:	0c 5f       	subi	r16, 0xFC	; 252
    149c:	1f 4f       	sbci	r17, 0xFF	; 255
    149e:	ff e3       	ldi	r31, 0x3F	; 63
    14a0:	f9 83       	std	Y+1, r31	; 0x01
    14a2:	0d c0       	rjmp	.+26     	; 0x14be <vfprintf+0x118>
    14a4:	83 36       	cpi	r24, 0x63	; 99
    14a6:	31 f0       	breq	.+12     	; 0x14b4 <vfprintf+0x10e>
    14a8:	83 37       	cpi	r24, 0x73	; 115
    14aa:	71 f0       	breq	.+28     	; 0x14c8 <vfprintf+0x122>
    14ac:	83 35       	cpi	r24, 0x53	; 83
    14ae:	09 f0       	breq	.+2      	; 0x14b2 <vfprintf+0x10c>
    14b0:	5c c0       	rjmp	.+184    	; 0x156a <vfprintf+0x1c4>
    14b2:	21 c0       	rjmp	.+66     	; 0x14f6 <vfprintf+0x150>
    14b4:	f8 01       	movw	r30, r16
    14b6:	80 81       	ld	r24, Z
    14b8:	89 83       	std	Y+1, r24	; 0x01
    14ba:	0e 5f       	subi	r16, 0xFE	; 254
    14bc:	1f 4f       	sbci	r17, 0xFF	; 255
    14be:	42 01       	movw	r8, r4
    14c0:	71 e0       	ldi	r23, 0x01	; 1
    14c2:	a7 2e       	mov	r10, r23
    14c4:	b1 2c       	mov	r11, r1
    14c6:	15 c0       	rjmp	.+42     	; 0x14f2 <vfprintf+0x14c>
    14c8:	62 e0       	ldi	r22, 0x02	; 2
    14ca:	66 2e       	mov	r6, r22
    14cc:	71 2c       	mov	r7, r1
    14ce:	60 0e       	add	r6, r16
    14d0:	71 1e       	adc	r7, r17
    14d2:	f8 01       	movw	r30, r16
    14d4:	80 80       	ld	r8, Z
    14d6:	91 80       	ldd	r9, Z+1	; 0x01
    14d8:	26 ff       	sbrs	r18, 6
    14da:	03 c0       	rjmp	.+6      	; 0x14e2 <vfprintf+0x13c>
    14dc:	6e 2d       	mov	r22, r14
    14de:	70 e0       	ldi	r23, 0x00	; 0
    14e0:	02 c0       	rjmp	.+4      	; 0x14e6 <vfprintf+0x140>
    14e2:	6f ef       	ldi	r22, 0xFF	; 255
    14e4:	7f ef       	ldi	r23, 0xFF	; 255
    14e6:	c4 01       	movw	r24, r8
    14e8:	2c 87       	std	Y+12, r18	; 0x0c
    14ea:	40 d1       	rcall	.+640    	; 0x176c <strnlen>
    14ec:	5c 01       	movw	r10, r24
    14ee:	83 01       	movw	r16, r6
    14f0:	2c 85       	ldd	r18, Y+12	; 0x0c
    14f2:	2f 77       	andi	r18, 0x7F	; 127
    14f4:	16 c0       	rjmp	.+44     	; 0x1522 <vfprintf+0x17c>
    14f6:	52 e0       	ldi	r21, 0x02	; 2
    14f8:	65 2e       	mov	r6, r21
    14fa:	71 2c       	mov	r7, r1
    14fc:	60 0e       	add	r6, r16
    14fe:	71 1e       	adc	r7, r17
    1500:	f8 01       	movw	r30, r16
    1502:	80 80       	ld	r8, Z
    1504:	91 80       	ldd	r9, Z+1	; 0x01
    1506:	26 ff       	sbrs	r18, 6
    1508:	03 c0       	rjmp	.+6      	; 0x1510 <vfprintf+0x16a>
    150a:	6e 2d       	mov	r22, r14
    150c:	70 e0       	ldi	r23, 0x00	; 0
    150e:	02 c0       	rjmp	.+4      	; 0x1514 <vfprintf+0x16e>
    1510:	6f ef       	ldi	r22, 0xFF	; 255
    1512:	7f ef       	ldi	r23, 0xFF	; 255
    1514:	c4 01       	movw	r24, r8
    1516:	2c 87       	std	Y+12, r18	; 0x0c
    1518:	1e d1       	rcall	.+572    	; 0x1756 <strnlen_P>
    151a:	5c 01       	movw	r10, r24
    151c:	2c 85       	ldd	r18, Y+12	; 0x0c
    151e:	20 68       	ori	r18, 0x80	; 128
    1520:	83 01       	movw	r16, r6
    1522:	23 fd       	sbrc	r18, 3
    1524:	1e c0       	rjmp	.+60     	; 0x1562 <vfprintf+0x1bc>
    1526:	07 c0       	rjmp	.+14     	; 0x1536 <vfprintf+0x190>
    1528:	80 e2       	ldi	r24, 0x20	; 32
    152a:	90 e0       	ldi	r25, 0x00	; 0
    152c:	b6 01       	movw	r22, r12
    152e:	2c 87       	std	Y+12, r18	; 0x0c
    1530:	28 d1       	rcall	.+592    	; 0x1782 <fputc>
    1532:	fa 94       	dec	r15
    1534:	2c 85       	ldd	r18, Y+12	; 0x0c
    1536:	8f 2d       	mov	r24, r15
    1538:	90 e0       	ldi	r25, 0x00	; 0
    153a:	a8 16       	cp	r10, r24
    153c:	b9 06       	cpc	r11, r25
    153e:	a0 f3       	brcs	.-24     	; 0x1528 <vfprintf+0x182>
    1540:	10 c0       	rjmp	.+32     	; 0x1562 <vfprintf+0x1bc>
    1542:	f4 01       	movw	r30, r8
    1544:	27 fd       	sbrc	r18, 7
    1546:	85 91       	lpm	r24, Z+
    1548:	27 ff       	sbrs	r18, 7
    154a:	81 91       	ld	r24, Z+
    154c:	4f 01       	movw	r8, r30
    154e:	90 e0       	ldi	r25, 0x00	; 0
    1550:	b6 01       	movw	r22, r12
    1552:	2c 87       	std	Y+12, r18	; 0x0c
    1554:	16 d1       	rcall	.+556    	; 0x1782 <fputc>
    1556:	2c 85       	ldd	r18, Y+12	; 0x0c
    1558:	f1 10       	cpse	r15, r1
    155a:	fa 94       	dec	r15
    155c:	08 94       	sec
    155e:	a1 08       	sbc	r10, r1
    1560:	b1 08       	sbc	r11, r1
    1562:	a1 14       	cp	r10, r1
    1564:	b1 04       	cpc	r11, r1
    1566:	69 f7       	brne	.-38     	; 0x1542 <vfprintf+0x19c>
    1568:	e9 c0       	rjmp	.+466    	; 0x173c <vfprintf+0x396>
    156a:	84 36       	cpi	r24, 0x64	; 100
    156c:	11 f0       	breq	.+4      	; 0x1572 <vfprintf+0x1cc>
    156e:	89 36       	cpi	r24, 0x69	; 105
    1570:	41 f5       	brne	.+80     	; 0x15c2 <vfprintf+0x21c>
    1572:	27 ff       	sbrs	r18, 7
    1574:	08 c0       	rjmp	.+16     	; 0x1586 <vfprintf+0x1e0>
    1576:	f8 01       	movw	r30, r16
    1578:	60 81       	ld	r22, Z
    157a:	71 81       	ldd	r23, Z+1	; 0x01
    157c:	82 81       	ldd	r24, Z+2	; 0x02
    157e:	93 81       	ldd	r25, Z+3	; 0x03
    1580:	0c 5f       	subi	r16, 0xFC	; 252
    1582:	1f 4f       	sbci	r17, 0xFF	; 255
    1584:	09 c0       	rjmp	.+18     	; 0x1598 <vfprintf+0x1f2>
    1586:	f8 01       	movw	r30, r16
    1588:	60 81       	ld	r22, Z
    158a:	71 81       	ldd	r23, Z+1	; 0x01
    158c:	88 27       	eor	r24, r24
    158e:	77 fd       	sbrc	r23, 7
    1590:	80 95       	com	r24
    1592:	98 2f       	mov	r25, r24
    1594:	0e 5f       	subi	r16, 0xFE	; 254
    1596:	1f 4f       	sbci	r17, 0xFF	; 255
    1598:	4f e6       	ldi	r20, 0x6F	; 111
    159a:	b4 2e       	mov	r11, r20
    159c:	b2 22       	and	r11, r18
    159e:	97 ff       	sbrs	r25, 7
    15a0:	09 c0       	rjmp	.+18     	; 0x15b4 <vfprintf+0x20e>
    15a2:	90 95       	com	r25
    15a4:	80 95       	com	r24
    15a6:	70 95       	com	r23
    15a8:	61 95       	neg	r22
    15aa:	7f 4f       	sbci	r23, 0xFF	; 255
    15ac:	8f 4f       	sbci	r24, 0xFF	; 255
    15ae:	9f 4f       	sbci	r25, 0xFF	; 255
    15b0:	f0 e8       	ldi	r31, 0x80	; 128
    15b2:	bf 2a       	or	r11, r31
    15b4:	a2 01       	movw	r20, r4
    15b6:	2a e0       	ldi	r18, 0x0A	; 10
    15b8:	30 e0       	ldi	r19, 0x00	; 0
    15ba:	0f d1       	rcall	.+542    	; 0x17da <__ultoa_invert>
    15bc:	78 2e       	mov	r7, r24
    15be:	74 18       	sub	r7, r4
    15c0:	44 c0       	rjmp	.+136    	; 0x164a <vfprintf+0x2a4>
    15c2:	85 37       	cpi	r24, 0x75	; 117
    15c4:	31 f4       	brne	.+12     	; 0x15d2 <vfprintf+0x22c>
    15c6:	3f ee       	ldi	r19, 0xEF	; 239
    15c8:	b3 2e       	mov	r11, r19
    15ca:	b2 22       	and	r11, r18
    15cc:	2a e0       	ldi	r18, 0x0A	; 10
    15ce:	30 e0       	ldi	r19, 0x00	; 0
    15d0:	25 c0       	rjmp	.+74     	; 0x161c <vfprintf+0x276>
    15d2:	99 ef       	ldi	r25, 0xF9	; 249
    15d4:	b9 2e       	mov	r11, r25
    15d6:	b2 22       	and	r11, r18
    15d8:	8f 36       	cpi	r24, 0x6F	; 111
    15da:	c1 f0       	breq	.+48     	; 0x160c <vfprintf+0x266>
    15dc:	80 37       	cpi	r24, 0x70	; 112
    15de:	20 f4       	brcc	.+8      	; 0x15e8 <vfprintf+0x242>
    15e0:	88 35       	cpi	r24, 0x58	; 88
    15e2:	09 f0       	breq	.+2      	; 0x15e6 <vfprintf+0x240>
    15e4:	ae c0       	rjmp	.+348    	; 0x1742 <vfprintf+0x39c>
    15e6:	0d c0       	rjmp	.+26     	; 0x1602 <vfprintf+0x25c>
    15e8:	80 37       	cpi	r24, 0x70	; 112
    15ea:	21 f0       	breq	.+8      	; 0x15f4 <vfprintf+0x24e>
    15ec:	88 37       	cpi	r24, 0x78	; 120
    15ee:	09 f0       	breq	.+2      	; 0x15f2 <vfprintf+0x24c>
    15f0:	a8 c0       	rjmp	.+336    	; 0x1742 <vfprintf+0x39c>
    15f2:	02 c0       	rjmp	.+4      	; 0x15f8 <vfprintf+0x252>
    15f4:	20 e1       	ldi	r18, 0x10	; 16
    15f6:	b2 2a       	or	r11, r18
    15f8:	b4 fe       	sbrs	r11, 4
    15fa:	0b c0       	rjmp	.+22     	; 0x1612 <vfprintf+0x26c>
    15fc:	84 e0       	ldi	r24, 0x04	; 4
    15fe:	b8 2a       	or	r11, r24
    1600:	08 c0       	rjmp	.+16     	; 0x1612 <vfprintf+0x26c>
    1602:	b4 fe       	sbrs	r11, 4
    1604:	09 c0       	rjmp	.+18     	; 0x1618 <vfprintf+0x272>
    1606:	e6 e0       	ldi	r30, 0x06	; 6
    1608:	be 2a       	or	r11, r30
    160a:	06 c0       	rjmp	.+12     	; 0x1618 <vfprintf+0x272>
    160c:	28 e0       	ldi	r18, 0x08	; 8
    160e:	30 e0       	ldi	r19, 0x00	; 0
    1610:	05 c0       	rjmp	.+10     	; 0x161c <vfprintf+0x276>
    1612:	20 e1       	ldi	r18, 0x10	; 16
    1614:	30 e0       	ldi	r19, 0x00	; 0
    1616:	02 c0       	rjmp	.+4      	; 0x161c <vfprintf+0x276>
    1618:	20 e1       	ldi	r18, 0x10	; 16
    161a:	32 e0       	ldi	r19, 0x02	; 2
    161c:	b7 fe       	sbrs	r11, 7
    161e:	08 c0       	rjmp	.+16     	; 0x1630 <vfprintf+0x28a>
    1620:	f8 01       	movw	r30, r16
    1622:	60 81       	ld	r22, Z
    1624:	71 81       	ldd	r23, Z+1	; 0x01
    1626:	82 81       	ldd	r24, Z+2	; 0x02
    1628:	93 81       	ldd	r25, Z+3	; 0x03
    162a:	0c 5f       	subi	r16, 0xFC	; 252
    162c:	1f 4f       	sbci	r17, 0xFF	; 255
    162e:	07 c0       	rjmp	.+14     	; 0x163e <vfprintf+0x298>
    1630:	f8 01       	movw	r30, r16
    1632:	60 81       	ld	r22, Z
    1634:	71 81       	ldd	r23, Z+1	; 0x01
    1636:	80 e0       	ldi	r24, 0x00	; 0
    1638:	90 e0       	ldi	r25, 0x00	; 0
    163a:	0e 5f       	subi	r16, 0xFE	; 254
    163c:	1f 4f       	sbci	r17, 0xFF	; 255
    163e:	a2 01       	movw	r20, r4
    1640:	cc d0       	rcall	.+408    	; 0x17da <__ultoa_invert>
    1642:	78 2e       	mov	r7, r24
    1644:	74 18       	sub	r7, r4
    1646:	ff e7       	ldi	r31, 0x7F	; 127
    1648:	bf 22       	and	r11, r31
    164a:	b6 fe       	sbrs	r11, 6
    164c:	0b c0       	rjmp	.+22     	; 0x1664 <vfprintf+0x2be>
    164e:	2e ef       	ldi	r18, 0xFE	; 254
    1650:	b2 22       	and	r11, r18
    1652:	7e 14       	cp	r7, r14
    1654:	38 f4       	brcc	.+14     	; 0x1664 <vfprintf+0x2be>
    1656:	b4 fe       	sbrs	r11, 4
    1658:	07 c0       	rjmp	.+14     	; 0x1668 <vfprintf+0x2c2>
    165a:	b2 fc       	sbrc	r11, 2
    165c:	05 c0       	rjmp	.+10     	; 0x1668 <vfprintf+0x2c2>
    165e:	8f ee       	ldi	r24, 0xEF	; 239
    1660:	b8 22       	and	r11, r24
    1662:	02 c0       	rjmp	.+4      	; 0x1668 <vfprintf+0x2c2>
    1664:	a7 2c       	mov	r10, r7
    1666:	01 c0       	rjmp	.+2      	; 0x166a <vfprintf+0x2c4>
    1668:	ae 2c       	mov	r10, r14
    166a:	8b 2d       	mov	r24, r11
    166c:	90 e0       	ldi	r25, 0x00	; 0
    166e:	b4 fe       	sbrs	r11, 4
    1670:	0d c0       	rjmp	.+26     	; 0x168c <vfprintf+0x2e6>
    1672:	fe 01       	movw	r30, r28
    1674:	e7 0d       	add	r30, r7
    1676:	f1 1d       	adc	r31, r1
    1678:	20 81       	ld	r18, Z
    167a:	20 33       	cpi	r18, 0x30	; 48
    167c:	19 f4       	brne	.+6      	; 0x1684 <vfprintf+0x2de>
    167e:	e9 ee       	ldi	r30, 0xE9	; 233
    1680:	be 22       	and	r11, r30
    1682:	09 c0       	rjmp	.+18     	; 0x1696 <vfprintf+0x2f0>
    1684:	a3 94       	inc	r10
    1686:	b2 fe       	sbrs	r11, 2
    1688:	06 c0       	rjmp	.+12     	; 0x1696 <vfprintf+0x2f0>
    168a:	04 c0       	rjmp	.+8      	; 0x1694 <vfprintf+0x2ee>
    168c:	86 78       	andi	r24, 0x86	; 134
    168e:	90 70       	andi	r25, 0x00	; 0
    1690:	00 97       	sbiw	r24, 0x00	; 0
    1692:	09 f0       	breq	.+2      	; 0x1696 <vfprintf+0x2f0>
    1694:	a3 94       	inc	r10
    1696:	8b 2c       	mov	r8, r11
    1698:	99 24       	eor	r9, r9
    169a:	b3 fc       	sbrc	r11, 3
    169c:	13 c0       	rjmp	.+38     	; 0x16c4 <vfprintf+0x31e>
    169e:	b0 fe       	sbrs	r11, 0
    16a0:	0e c0       	rjmp	.+28     	; 0x16be <vfprintf+0x318>
    16a2:	af 14       	cp	r10, r15
    16a4:	28 f4       	brcc	.+10     	; 0x16b0 <vfprintf+0x30a>
    16a6:	e7 2c       	mov	r14, r7
    16a8:	ef 0c       	add	r14, r15
    16aa:	ea 18       	sub	r14, r10
    16ac:	af 2c       	mov	r10, r15
    16ae:	07 c0       	rjmp	.+14     	; 0x16be <vfprintf+0x318>
    16b0:	e7 2c       	mov	r14, r7
    16b2:	05 c0       	rjmp	.+10     	; 0x16be <vfprintf+0x318>
    16b4:	80 e2       	ldi	r24, 0x20	; 32
    16b6:	90 e0       	ldi	r25, 0x00	; 0
    16b8:	b6 01       	movw	r22, r12
    16ba:	63 d0       	rcall	.+198    	; 0x1782 <fputc>
    16bc:	a3 94       	inc	r10
    16be:	af 14       	cp	r10, r15
    16c0:	c8 f3       	brcs	.-14     	; 0x16b4 <vfprintf+0x30e>
    16c2:	04 c0       	rjmp	.+8      	; 0x16cc <vfprintf+0x326>
    16c4:	af 14       	cp	r10, r15
    16c6:	10 f4       	brcc	.+4      	; 0x16cc <vfprintf+0x326>
    16c8:	fa 18       	sub	r15, r10
    16ca:	01 c0       	rjmp	.+2      	; 0x16ce <vfprintf+0x328>
    16cc:	ff 24       	eor	r15, r15
    16ce:	84 fe       	sbrs	r8, 4
    16d0:	0e c0       	rjmp	.+28     	; 0x16ee <vfprintf+0x348>
    16d2:	80 e3       	ldi	r24, 0x30	; 48
    16d4:	90 e0       	ldi	r25, 0x00	; 0
    16d6:	b6 01       	movw	r22, r12
    16d8:	54 d0       	rcall	.+168    	; 0x1782 <fputc>
    16da:	82 fe       	sbrs	r8, 2
    16dc:	1d c0       	rjmp	.+58     	; 0x1718 <vfprintf+0x372>
    16de:	81 fe       	sbrs	r8, 1
    16e0:	03 c0       	rjmp	.+6      	; 0x16e8 <vfprintf+0x342>
    16e2:	88 e5       	ldi	r24, 0x58	; 88
    16e4:	90 e0       	ldi	r25, 0x00	; 0
    16e6:	10 c0       	rjmp	.+32     	; 0x1708 <vfprintf+0x362>
    16e8:	88 e7       	ldi	r24, 0x78	; 120
    16ea:	90 e0       	ldi	r25, 0x00	; 0
    16ec:	0d c0       	rjmp	.+26     	; 0x1708 <vfprintf+0x362>
    16ee:	c4 01       	movw	r24, r8
    16f0:	86 78       	andi	r24, 0x86	; 134
    16f2:	90 70       	andi	r25, 0x00	; 0
    16f4:	00 97       	sbiw	r24, 0x00	; 0
    16f6:	81 f0       	breq	.+32     	; 0x1718 <vfprintf+0x372>
    16f8:	81 fc       	sbrc	r8, 1
    16fa:	02 c0       	rjmp	.+4      	; 0x1700 <vfprintf+0x35a>
    16fc:	80 e2       	ldi	r24, 0x20	; 32
    16fe:	01 c0       	rjmp	.+2      	; 0x1702 <vfprintf+0x35c>
    1700:	8b e2       	ldi	r24, 0x2B	; 43
    1702:	b7 fc       	sbrc	r11, 7
    1704:	8d e2       	ldi	r24, 0x2D	; 45
    1706:	90 e0       	ldi	r25, 0x00	; 0
    1708:	b6 01       	movw	r22, r12
    170a:	3b d0       	rcall	.+118    	; 0x1782 <fputc>
    170c:	05 c0       	rjmp	.+10     	; 0x1718 <vfprintf+0x372>
    170e:	80 e3       	ldi	r24, 0x30	; 48
    1710:	90 e0       	ldi	r25, 0x00	; 0
    1712:	b6 01       	movw	r22, r12
    1714:	36 d0       	rcall	.+108    	; 0x1782 <fputc>
    1716:	ea 94       	dec	r14
    1718:	7e 14       	cp	r7, r14
    171a:	c8 f3       	brcs	.-14     	; 0x170e <vfprintf+0x368>
    171c:	7a 94       	dec	r7
    171e:	f2 01       	movw	r30, r4
    1720:	e7 0d       	add	r30, r7
    1722:	f1 1d       	adc	r31, r1
    1724:	80 81       	ld	r24, Z
    1726:	90 e0       	ldi	r25, 0x00	; 0
    1728:	b6 01       	movw	r22, r12
    172a:	2b d0       	rcall	.+86     	; 0x1782 <fputc>
    172c:	77 20       	and	r7, r7
    172e:	b1 f7       	brne	.-20     	; 0x171c <vfprintf+0x376>
    1730:	05 c0       	rjmp	.+10     	; 0x173c <vfprintf+0x396>
    1732:	80 e2       	ldi	r24, 0x20	; 32
    1734:	90 e0       	ldi	r25, 0x00	; 0
    1736:	b6 01       	movw	r22, r12
    1738:	24 d0       	rcall	.+72     	; 0x1782 <fputc>
    173a:	fa 94       	dec	r15
    173c:	ff 20       	and	r15, r15
    173e:	c9 f7       	brne	.-14     	; 0x1732 <vfprintf+0x38c>
    1740:	44 ce       	rjmp	.-888    	; 0x13ca <vfprintf+0x24>
    1742:	f6 01       	movw	r30, r12
    1744:	26 81       	ldd	r18, Z+6	; 0x06
    1746:	37 81       	ldd	r19, Z+7	; 0x07
    1748:	02 c0       	rjmp	.+4      	; 0x174e <vfprintf+0x3a8>
    174a:	2f ef       	ldi	r18, 0xFF	; 255
    174c:	3f ef       	ldi	r19, 0xFF	; 255
    174e:	c9 01       	movw	r24, r18
    1750:	2c 96       	adiw	r28, 0x0c	; 12
    1752:	e2 e1       	ldi	r30, 0x12	; 18
    1754:	df cd       	rjmp	.-1090   	; 0x1314 <__epilogue_restores__>

00001756 <strnlen_P>:
    1756:	fc 01       	movw	r30, r24
    1758:	05 90       	lpm	r0, Z+
    175a:	61 50       	subi	r22, 0x01	; 1
    175c:	70 40       	sbci	r23, 0x00	; 0
    175e:	01 10       	cpse	r0, r1
    1760:	d8 f7       	brcc	.-10     	; 0x1758 <strnlen_P+0x2>
    1762:	80 95       	com	r24
    1764:	90 95       	com	r25
    1766:	8e 0f       	add	r24, r30
    1768:	9f 1f       	adc	r25, r31
    176a:	08 95       	ret

0000176c <strnlen>:
    176c:	fc 01       	movw	r30, r24
    176e:	61 50       	subi	r22, 0x01	; 1
    1770:	70 40       	sbci	r23, 0x00	; 0
    1772:	01 90       	ld	r0, Z+
    1774:	01 10       	cpse	r0, r1
    1776:	d8 f7       	brcc	.-10     	; 0x176e <strnlen+0x2>
    1778:	80 95       	com	r24
    177a:	90 95       	com	r25
    177c:	8e 0f       	add	r24, r30
    177e:	9f 1f       	adc	r25, r31
    1780:	08 95       	ret

00001782 <fputc>:
    1782:	0f 93       	push	r16
    1784:	1f 93       	push	r17
    1786:	cf 93       	push	r28
    1788:	df 93       	push	r29
    178a:	8c 01       	movw	r16, r24
    178c:	eb 01       	movw	r28, r22
    178e:	8b 81       	ldd	r24, Y+3	; 0x03
    1790:	81 ff       	sbrs	r24, 1
    1792:	1b c0       	rjmp	.+54     	; 0x17ca <fputc+0x48>
    1794:	82 ff       	sbrs	r24, 2
    1796:	0d c0       	rjmp	.+26     	; 0x17b2 <fputc+0x30>
    1798:	2e 81       	ldd	r18, Y+6	; 0x06
    179a:	3f 81       	ldd	r19, Y+7	; 0x07
    179c:	8c 81       	ldd	r24, Y+4	; 0x04
    179e:	9d 81       	ldd	r25, Y+5	; 0x05
    17a0:	28 17       	cp	r18, r24
    17a2:	39 07       	cpc	r19, r25
    17a4:	64 f4       	brge	.+24     	; 0x17be <fputc+0x3c>
    17a6:	e8 81       	ld	r30, Y
    17a8:	f9 81       	ldd	r31, Y+1	; 0x01
    17aa:	01 93       	st	Z+, r16
    17ac:	f9 83       	std	Y+1, r31	; 0x01
    17ae:	e8 83       	st	Y, r30
    17b0:	06 c0       	rjmp	.+12     	; 0x17be <fputc+0x3c>
    17b2:	e8 85       	ldd	r30, Y+8	; 0x08
    17b4:	f9 85       	ldd	r31, Y+9	; 0x09
    17b6:	80 2f       	mov	r24, r16
    17b8:	09 95       	icall
    17ba:	00 97       	sbiw	r24, 0x00	; 0
    17bc:	31 f4       	brne	.+12     	; 0x17ca <fputc+0x48>
    17be:	8e 81       	ldd	r24, Y+6	; 0x06
    17c0:	9f 81       	ldd	r25, Y+7	; 0x07
    17c2:	01 96       	adiw	r24, 0x01	; 1
    17c4:	9f 83       	std	Y+7, r25	; 0x07
    17c6:	8e 83       	std	Y+6, r24	; 0x06
    17c8:	02 c0       	rjmp	.+4      	; 0x17ce <fputc+0x4c>
    17ca:	0f ef       	ldi	r16, 0xFF	; 255
    17cc:	1f ef       	ldi	r17, 0xFF	; 255
    17ce:	c8 01       	movw	r24, r16
    17d0:	df 91       	pop	r29
    17d2:	cf 91       	pop	r28
    17d4:	1f 91       	pop	r17
    17d6:	0f 91       	pop	r16
    17d8:	08 95       	ret

000017da <__ultoa_invert>:
    17da:	fa 01       	movw	r30, r20
    17dc:	aa 27       	eor	r26, r26
    17de:	28 30       	cpi	r18, 0x08	; 8
    17e0:	51 f1       	breq	.+84     	; 0x1836 <__ultoa_invert+0x5c>
    17e2:	20 31       	cpi	r18, 0x10	; 16
    17e4:	81 f1       	breq	.+96     	; 0x1846 <__ultoa_invert+0x6c>
    17e6:	e8 94       	clt
    17e8:	6f 93       	push	r22
    17ea:	6e 7f       	andi	r22, 0xFE	; 254
    17ec:	6e 5f       	subi	r22, 0xFE	; 254
    17ee:	7f 4f       	sbci	r23, 0xFF	; 255
    17f0:	8f 4f       	sbci	r24, 0xFF	; 255
    17f2:	9f 4f       	sbci	r25, 0xFF	; 255
    17f4:	af 4f       	sbci	r26, 0xFF	; 255
    17f6:	b1 e0       	ldi	r27, 0x01	; 1
    17f8:	3e d0       	rcall	.+124    	; 0x1876 <__ultoa_invert+0x9c>
    17fa:	b4 e0       	ldi	r27, 0x04	; 4
    17fc:	3c d0       	rcall	.+120    	; 0x1876 <__ultoa_invert+0x9c>
    17fe:	67 0f       	add	r22, r23
    1800:	78 1f       	adc	r23, r24
    1802:	89 1f       	adc	r24, r25
    1804:	9a 1f       	adc	r25, r26
    1806:	a1 1d       	adc	r26, r1
    1808:	68 0f       	add	r22, r24
    180a:	79 1f       	adc	r23, r25
    180c:	8a 1f       	adc	r24, r26
    180e:	91 1d       	adc	r25, r1
    1810:	a1 1d       	adc	r26, r1
    1812:	6a 0f       	add	r22, r26
    1814:	71 1d       	adc	r23, r1
    1816:	81 1d       	adc	r24, r1
    1818:	91 1d       	adc	r25, r1
    181a:	a1 1d       	adc	r26, r1
    181c:	20 d0       	rcall	.+64     	; 0x185e <__ultoa_invert+0x84>
    181e:	09 f4       	brne	.+2      	; 0x1822 <__ultoa_invert+0x48>
    1820:	68 94       	set
    1822:	3f 91       	pop	r19
    1824:	2a e0       	ldi	r18, 0x0A	; 10
    1826:	26 9f       	mul	r18, r22
    1828:	11 24       	eor	r1, r1
    182a:	30 19       	sub	r19, r0
    182c:	30 5d       	subi	r19, 0xD0	; 208
    182e:	31 93       	st	Z+, r19
    1830:	de f6       	brtc	.-74     	; 0x17e8 <__ultoa_invert+0xe>
    1832:	cf 01       	movw	r24, r30
    1834:	08 95       	ret
    1836:	46 2f       	mov	r20, r22
    1838:	47 70       	andi	r20, 0x07	; 7
    183a:	40 5d       	subi	r20, 0xD0	; 208
    183c:	41 93       	st	Z+, r20
    183e:	b3 e0       	ldi	r27, 0x03	; 3
    1840:	0f d0       	rcall	.+30     	; 0x1860 <__ultoa_invert+0x86>
    1842:	c9 f7       	brne	.-14     	; 0x1836 <__ultoa_invert+0x5c>
    1844:	f6 cf       	rjmp	.-20     	; 0x1832 <__ultoa_invert+0x58>
    1846:	46 2f       	mov	r20, r22
    1848:	4f 70       	andi	r20, 0x0F	; 15
    184a:	40 5d       	subi	r20, 0xD0	; 208
    184c:	4a 33       	cpi	r20, 0x3A	; 58
    184e:	18 f0       	brcs	.+6      	; 0x1856 <__ultoa_invert+0x7c>
    1850:	49 5d       	subi	r20, 0xD9	; 217
    1852:	31 fd       	sbrc	r19, 1
    1854:	40 52       	subi	r20, 0x20	; 32
    1856:	41 93       	st	Z+, r20
    1858:	02 d0       	rcall	.+4      	; 0x185e <__ultoa_invert+0x84>
    185a:	a9 f7       	brne	.-22     	; 0x1846 <__ultoa_invert+0x6c>
    185c:	ea cf       	rjmp	.-44     	; 0x1832 <__ultoa_invert+0x58>
    185e:	b4 e0       	ldi	r27, 0x04	; 4
    1860:	a6 95       	lsr	r26
    1862:	97 95       	ror	r25
    1864:	87 95       	ror	r24
    1866:	77 95       	ror	r23
    1868:	67 95       	ror	r22
    186a:	ba 95       	dec	r27
    186c:	c9 f7       	brne	.-14     	; 0x1860 <__ultoa_invert+0x86>
    186e:	00 97       	sbiw	r24, 0x00	; 0
    1870:	61 05       	cpc	r22, r1
    1872:	71 05       	cpc	r23, r1
    1874:	08 95       	ret
    1876:	9b 01       	movw	r18, r22
    1878:	ac 01       	movw	r20, r24
    187a:	0a 2e       	mov	r0, r26
    187c:	06 94       	lsr	r0
    187e:	57 95       	ror	r21
    1880:	47 95       	ror	r20
    1882:	37 95       	ror	r19
    1884:	27 95       	ror	r18
    1886:	ba 95       	dec	r27
    1888:	c9 f7       	brne	.-14     	; 0x187c <__ultoa_invert+0xa2>
    188a:	62 0f       	add	r22, r18
    188c:	73 1f       	adc	r23, r19
    188e:	84 1f       	adc	r24, r20
    1890:	95 1f       	adc	r25, r21
    1892:	a0 1d       	adc	r26, r0
    1894:	08 95       	ret

00001896 <_exit>:
    1896:	f8 94       	cli

00001898 <__stop_program>:
    1898:	ff cf       	rjmp	.-2      	; 0x1898 <__stop_program>
